
vmvasily:     file format elf32-i386


Disassembly of section .text:

00040000 <__krnl_start>:
   40000:	02 b0 ad 1b 07 00    	add    0x71bad(%eax),%dh
   40006:	00 00                	add    %al,(%eax)
   40008:	f7 4f 52 e4 00 00 00 	testl  $0xe4,0x52(%edi)
	...

00040020 <istextmode>:
   40020:	00 00                	add    %al,(%eax)
	...

00040024 <width>:
   40024:	00                   	.byte 0x0
   40025:	05                   	.byte 0x5
	...

00040028 <length>:
   40028:	d0 02                	rolb   (%edx)
	...

0004002c <depth>:
   4002c:	20 00                	and    %al,(%eax)
	...

00040030 <_start>:
   40030:	90                   	nop
   40031:	3d 02 b0 ad 2b       	cmp    $0x2badb002,%eax
   40036:	74 09                	je     40041 <s>

00040038 <kill>:
   40038:	0f 01 1d 00 00 00 00 	lidtl  0x0
   4003f:	cd 10                	int    $0x10

00040041 <s>:
   40041:	0f 01 15 00 80 04 00 	lgdtl  0x48000
   40048:	ea 53 00 04 00 08 00 	ljmp   $0x8,$0x40053

0004004f <multiboot_info>:
   4004f:	00 00                	add    %al,(%eax)
	...

00040053 <switch_to_our_seg>:
   40053:	89 1d 4f 00 04 00    	mov    %ebx,0x4004f
   40059:	66 bb 10 00          	mov    $0x10,%bx
   4005d:	8e db                	mov    %ebx,%ds
   4005f:	8e c3                	mov    %ebx,%es
   40061:	8e e3                	mov    %ebx,%fs
   40063:	8e eb                	mov    %ebx,%gs
   40065:	8e d3                	mov    %ebx,%ss
   40067:	bb 20 90 04 00       	mov    $0x49020,%ebx
   4006c:	66 89 1d 30 80 04 00 	mov    %bx,0x48030
   40073:	bc 00 40 00 00       	mov    $0x4000,%esp
   40078:	89 e5                	mov    %esp,%ebp
   4007a:	ff 35 4f 00 04 00    	push   0x4004f
   40080:	9b db e3             	finit  
   40083:	e8 2e 16 00 00       	call   416b6 <krnl_main>

00040088 <a>:
   40088:	fb                   	sti    
   40089:	f4                   	hlt    
   4008a:	eb fc                	jmp    40088 <a>

0004008c <ebxbac>:
   4008c:	00 00                	add    %al,(%eax)
	...

00040090 <eaxbac>:
   40090:	00 00                	add    %al,(%eax)
	...

00040094 <temp>:
   40094:	00 00                	add    %al,(%eax)
	...

00040098 <syscall_sr>:
   40098:	60                   	pusha  
   40099:	57                   	push   %edi
   4009a:	56                   	push   %esi
   4009b:	52                   	push   %edx
   4009c:	51                   	push   %ecx
   4009d:	53                   	push   %ebx
   4009e:	50                   	push   %eax
   4009f:	55                   	push   %ebp
   400a0:	e8 04 27 00 00       	call   427a9 <c_syscall>
   400a5:	a3 94 00 04 00       	mov    %eax,0x40094
   400aa:	83 c4 1c             	add    $0x1c,%esp
   400ad:	61                   	popa   
   400ae:	a1 94 00 04 00       	mov    0x40094,%eax
   400b3:	cf                   	iret   

000400b4 <pit_isr>:
   400b4:	66 50                	push   %ax
   400b6:	b0 20                	mov    $0x20,%al
   400b8:	e6 20                	out    %al,$0x20
   400ba:	66 b8 10 00          	mov    $0x10,%ax
   400be:	8e d8                	mov    %eax,%ds
   400c0:	8e c0                	mov    %eax,%es
   400c2:	8e e0                	mov    %eax,%fs
   400c4:	8e e8                	mov    %eax,%gs
   400c6:	8e d0                	mov    %eax,%ss
   400c8:	66 58                	pop    %ax
   400ca:	83 3d c8 c6 04 00 00 	cmpl   $0x0,0x4c6c8
   400d1:	0f 84 c9 00 00 00    	je     401a0 <.s>
   400d7:	60                   	pusha  
   400d8:	8b 1d d0 c6 04 00    	mov    0x4c6d0,%ebx
   400de:	8b 44 24 20          	mov    0x20(%esp),%eax
   400e2:	89 43 08             	mov    %eax,0x8(%ebx)
   400e5:	8b 44 24 28          	mov    0x28(%esp),%eax
   400e9:	89 43 18             	mov    %eax,0x18(%ebx)
   400ec:	3b 1d cc c6 04 00    	cmp    0x4c6cc,%ebx
   400f2:	74 07                	je     400fb <.r0>
   400f4:	8b 44 24 2c          	mov    0x2c(%esp),%eax
   400f8:	89 43 0c             	mov    %eax,0xc(%ebx)

000400fb <.r0>:
   400fb:	89 63 10             	mov    %esp,0x10(%ebx)
   400fe:	83 3b 00             	cmpl   $0x0,(%ebx)
   40101:	74 08                	je     4010b <.s1>
   40103:	89 1d d0 c6 04 00    	mov    %ebx,0x4c6d0
   40109:	eb 0c                	jmp    40117 <.s2>

0004010b <.s1>:
   4010b:	8b 1d cc c6 04 00    	mov    0x4c6cc,%ebx
   40111:	89 1d d0 c6 04 00    	mov    %ebx,0x4c6d0

00040117 <.s2>:
   40117:	8b 43 08             	mov    0x8(%ebx),%eax
   4011a:	89 44 24 20          	mov    %eax,0x20(%esp)
   4011e:	8b 43 18             	mov    0x18(%ebx),%eax
   40121:	89 44 24 28          	mov    %eax,0x28(%esp)
   40125:	3b 1d cc c6 04 00    	cmp    0x4c6cc,%ebx
   4012b:	74 07                	je     40134 <.1205>
   4012d:	8b 43 0c             	mov    0xc(%ebx),%eax
   40130:	89 44 24 2c          	mov    %eax,0x2c(%esp)

00040134 <.1205>:
   40134:	8b 63 10             	mov    0x10(%ebx),%esp
   40137:	8b 43 10             	mov    0x10(%ebx),%eax
   4013a:	a3 24 90 04 00       	mov    %eax,0x49024
   4013f:	c7 05 28 90 04 00 10 	movl   $0x10,0x49028
   40146:	00 00 00 
   40149:	8b 43 14             	mov    0x14(%ebx),%eax
   4014c:	a3 3c 90 04 00       	mov    %eax,0x4903c
   40151:	61                   	popa   
   40152:	50                   	push   %eax
   40153:	66 b8 23 00          	mov    $0x23,%ax
   40157:	8e d8                	mov    %eax,%ds
   40159:	8e c0                	mov    %eax,%es
   4015b:	8e e0                	mov    %eax,%fs
   4015d:	8e e8                	mov    %eax,%gs
   4015f:	a1 d0 c6 04 00       	mov    0x4c6d0,%eax
   40164:	3b 05 cc c6 04 00    	cmp    0x4c6cc,%eax
   4016a:	74 1e                	je     4018a <.ring0>
   4016c:	c7 44 24 14 23 00 00 	movl   $0x23,0x14(%esp)
   40173:	00 
   40174:	c7 44 24 08 1b 00 00 	movl   $0x1b,0x8(%esp)
   4017b:	00 
   4017c:	66 b8 23 00          	mov    $0x23,%ax
   40180:	8e d8                	mov    %eax,%ds
   40182:	8e c0                	mov    %eax,%es
   40184:	8e e0                	mov    %eax,%fs
   40186:	8e e8                	mov    %eax,%gs
   40188:	eb 14                	jmp    4019e <.end>

0004018a <.ring0>:
   4018a:	c7 44 24 08 08 00 00 	movl   $0x8,0x8(%esp)
   40191:	00 
   40192:	66 b8 10 00          	mov    $0x10,%ax
   40196:	8e d8                	mov    %eax,%ds
   40198:	8e c0                	mov    %eax,%es
   4019a:	8e e0                	mov    %eax,%fs
   4019c:	8e e8                	mov    %eax,%gs

0004019e <.end>:
   4019e:	58                   	pop    %eax
   4019f:	cf                   	iret   

000401a0 <.s>:
   401a0:	9d                   	popf   
   401a1:	cf                   	iret   

000401a2 <okmsg>:
   401a2:	0a 00                	or     (%eax),%al
	...

000401a5 <error_str>:
   401a5:	61                   	popa   
   401a6:	20 66 61             	and    %ah,0x61(%esi)
   401a9:	74 61                	je     4020c <error_2+0x6>
   401ab:	6c                   	insb   (%dx),%es:(%edi)
   401ac:	20 6b 65             	and    %ch,0x65(%ebx)
   401af:	72 6e                	jb     4021f <error_3+0xc>
   401b1:	65 6c                	gs insb (%dx),%es:(%edi)
   401b3:	20 65 78             	and    %ah,0x78(%ebp)
   401b6:	63 65 70             	arpl   %sp,0x70(%ebp)
   401b9:	74 69                	je     40224 <error_4+0x4>
   401bb:	6f                   	outsl  %ds:(%esi),(%dx)
   401bc:	6e                   	outsb  %ds:(%esi),(%dx)
   401bd:	20 68 61             	and    %ch,0x61(%eax)
   401c0:	73 20                	jae    401e2 <key_isr+0x17>
   401c2:	6f                   	outsl  %ds:(%esi),(%dx)
   401c3:	63 63 75             	arpl   %sp,0x75(%ebx)
   401c6:	72 65                	jb     4022d <error_5>
   401c8:	64 00 00             	add    %al,%fs:(%eax)

000401cb <key_isr>:
   401cb:	60                   	pusha  
   401cc:	b0 20                	mov    $0x20,%al
   401ce:	e6 20                	out    %al,$0x20
   401d0:	b8 00 00 00 00       	mov    $0x0,%eax
   401d5:	b8 00 00 00 00       	mov    $0x0,%eax
   401da:	e4 60                	in     $0x60,%al
   401dc:	50                   	push   %eax
   401dd:	e8 35 52 00 00       	call   45417 <keyboard_handler>
   401e2:	83 c4 04             	add    $0x4,%esp
   401e5:	61                   	popa   
   401e6:	cf                   	iret   

000401e7 <int_stub>:
   401e7:	cf                   	iret   

000401e8 <irq_stub>:
   401e8:	66 50                	push   %ax
   401ea:	b0 20                	mov    $0x20,%al
   401ec:	e6 20                	out    %al,$0x20
   401ee:	66 58                	pop    %ax
   401f0:	cf                   	iret   

000401f1 <err_code>:
   401f1:	00 00                	add    %al,(%eax)
	...

000401f5 <err_eip>:
   401f5:	00 00                	add    %al,(%eax)
	...

000401f9 <error_0>:
   401f9:	60                   	pusha  
   401fa:	c7 05 f1 01 04 00 00 	movl   $0x0,0x401f1
   40201:	00 00 00 
   40204:	61                   	popa   
   40205:	cf                   	iret   

00040206 <error_2>:
   40206:	60                   	pusha  
   40207:	c7 05 f1 01 04 00 02 	movl   $0x2,0x401f1
   4020e:	00 00 00 
   40211:	61                   	popa   
   40212:	cf                   	iret   

00040213 <error_3>:
   40213:	60                   	pusha  
   40214:	c7 05 f1 01 04 00 03 	movl   $0x3,0x401f1
   4021b:	00 00 00 
   4021e:	61                   	popa   
   4021f:	cf                   	iret   

00040220 <error_4>:
   40220:	60                   	pusha  
   40221:	c7 05 f1 01 04 00 04 	movl   $0x4,0x401f1
   40228:	00 00 00 
   4022b:	61                   	popa   
   4022c:	cf                   	iret   

0004022d <error_5>:
   4022d:	60                   	pusha  
   4022e:	c7 05 f1 01 04 00 05 	movl   $0x5,0x401f1
   40235:	00 00 00 
   40238:	61                   	popa   
   40239:	cf                   	iret   

0004023a <error_6>:
   4023a:	53                   	push   %ebx
   4023b:	8b 5c 24 04          	mov    0x4(%esp),%ebx
   4023f:	89 1d f5 01 04 00    	mov    %ebx,0x401f5
   40245:	5b                   	pop    %ebx
   40246:	60                   	pusha  
   40247:	8b 1d d0 c6 04 00    	mov    0x4c6d0,%ebx
   4024d:	80 7b 1c 00          	cmpb   $0x0,0x1c(%ebx)
   40251:	0f 85 aa fd fb ff    	jne    1 <tmp_stack-0x3fff>
   40257:	c7 05 f1 01 04 00 06 	movl   $0x6,0x401f1
   4025e:	00 00 00 
   40261:	ff 74 24 24          	push   0x24(%esp)
   40265:	ff 74 24 2c          	push   0x2c(%esp)
   40269:	6a 00                	push   $0x0
   4026b:	ff 35 f5 01 04 00    	push   0x401f5
   40271:	68 a5 01 04 00       	push   $0x401a5
   40276:	e8 1a 01 00 00       	call   40395 <exception_handler>
   4027b:	fa                   	cli    
   4027c:	f4                   	hlt    
   4027d:	61                   	popa   
   4027e:	cf                   	iret   

0004027f <error_7>:
   4027f:	60                   	pusha  
   40280:	c7 05 f1 01 04 00 07 	movl   $0x7,0x401f1
   40287:	00 00 00 
   4028a:	61                   	popa   
   4028b:	cf                   	iret   

0004028c <error_8>:
   4028c:	60                   	pusha  
   4028d:	c7 05 f1 01 04 00 08 	movl   $0x8,0x401f1
   40294:	00 00 00 
   40297:	61                   	popa   
   40298:	cf                   	iret   

00040299 <error_10>:
   40299:	60                   	pusha  
   4029a:	c7 05 f1 01 04 00 0a 	movl   $0xa,0x401f1
   402a1:	00 00 00 
   402a4:	61                   	popa   
   402a5:	cf                   	iret   

000402a6 <error_11>:
   402a6:	60                   	pusha  
   402a7:	c7 05 f1 01 04 00 0b 	movl   $0xb,0x401f1
   402ae:	00 00 00 
   402b1:	61                   	popa   
   402b2:	cf                   	iret   

000402b3 <error_12>:
   402b3:	60                   	pusha  
   402b4:	c7 05 f1 01 04 00 0c 	movl   $0xc,0x401f1
   402bb:	00 00 00 
   402be:	61                   	popa   
   402bf:	cf                   	iret   

000402c0 <error_13>:
   402c0:	60                   	pusha  
   402c1:	c7 05 f1 01 04 00 0d 	movl   $0xd,0x401f1
   402c8:	00 00 00 
   402cb:	61                   	popa   
   402cc:	cf                   	iret   

000402cd <error_14>:
   402cd:	53                   	push   %ebx
   402ce:	8b 5c 24 04          	mov    0x4(%esp),%ebx
   402d2:	89 1d f5 01 04 00    	mov    %ebx,0x401f5
   402d8:	5b                   	pop    %ebx
   402d9:	60                   	pusha  
   402da:	8b 1d d0 c6 04 00    	mov    0x4c6d0,%ebx
   402e0:	80 7b 1c 00          	cmpb   $0x0,0x1c(%ebx)
   402e4:	0f 85 17 fd fb ff    	jne    1 <tmp_stack-0x3fff>
   402ea:	c7 05 f1 01 04 00 0e 	movl   $0xe,0x401f1
   402f1:	00 00 00 
   402f4:	ff 74 24 24          	push   0x24(%esp)
   402f8:	ff 74 24 2c          	push   0x2c(%esp)
   402fc:	0f 20 d5             	mov    %cr2,%ebp
   402ff:	55                   	push   %ebp
   40300:	ff 35 f5 01 04 00    	push   0x401f5
   40306:	68 a5 01 04 00       	push   $0x401a5
   4030b:	e8 85 00 00 00       	call   40395 <exception_handler>
   40310:	fa                   	cli    
   40311:	f4                   	hlt    
   40312:	61                   	popa   
   40313:	cf                   	iret   

00040314 <error_17>:
   40314:	60                   	pusha  
   40315:	c7 05 f1 01 04 00 11 	movl   $0x11,0x401f1
   4031c:	00 00 00 
   4031f:	61                   	popa   
   40320:	cf                   	iret   

00040321 <error_18>:
   40321:	60                   	pusha  
   40322:	c7 05 f1 01 04 00 12 	movl   $0x12,0x401f1
   40329:	00 00 00 
   4032c:	61                   	popa   
   4032d:	cf                   	iret   

0004032e <error_19>:
   4032e:	60                   	pusha  
   4032f:	c7 05 f1 01 04 00 13 	movl   $0x13,0x401f1
   40336:	00 00 00 
   40339:	61                   	popa   
   4033a:	cf                   	iret   

0004033b <error_20>:
   4033b:	60                   	pusha  
   4033c:	c7 05 f1 01 04 00 14 	movl   $0x14,0x401f1
   40343:	00 00 00 
   40346:	61                   	popa   
   40347:	cf                   	iret   

00040348 <error_21>:
   40348:	60                   	pusha  
   40349:	c7 05 f1 01 04 00 15 	movl   $0x15,0x401f1
   40350:	00 00 00 
   40353:	61                   	popa   
   40354:	cf                   	iret   

00040355 <error_28>:
   40355:	60                   	pusha  
   40356:	c7 05 f1 01 04 00 1c 	movl   $0x1c,0x401f1
   4035d:	00 00 00 
   40360:	61                   	popa   
   40361:	cf                   	iret   

00040362 <error_29>:
   40362:	60                   	pusha  
   40363:	c7 05 f1 01 04 00 1d 	movl   $0x1d,0x401f1
   4036a:	00 00 00 
   4036d:	61                   	popa   
   4036e:	cf                   	iret   

0004036f <error_30>:
   4036f:	60                   	pusha  
   40370:	c7 05 f1 01 04 00 1e 	movl   $0x1e,0x401f1
   40377:	00 00 00 
   4037a:	61                   	popa   
   4037b:	cf                   	iret   

0004037c <irqstring>:
   4037c:	61                   	popa   
   4037d:	74 61                	je     403e0 <exception_handler+0x4b>
   4037f:	20 49 52             	and    %cl,0x52(%ecx)
   40382:	51                   	push   %ecx
   40383:	21 0a                	and    %ecx,(%edx)
	...

00040387 <atapi_isr>:
   40387:	c6 05 20 cf 04 00 01 	movb   $0x1,0x4cf20
   4038e:	b0 20                	mov    $0x20,%al
   40390:	e6 a0                	out    %al,$0xa0
   40392:	e6 20                	out    %al,$0x20
   40394:	cf                   	iret   

00040395 <exception_handler>:
   40395:	55                   	push   %ebp
   40396:	89 e5                	mov    %esp,%ebp
   40398:	56                   	push   %esi
   40399:	53                   	push   %ebx
   4039a:	83 ec 30             	sub    $0x30,%esp
   4039d:	a1 ac b0 04 00       	mov    0x4b0ac,%eax
   403a2:	d1 e8                	shr    %eax
   403a4:	89 c3                	mov    %eax,%ebx
   403a6:	a1 a8 b0 04 00       	mov    0x4b0a8,%eax
   403ab:	d1 e8                	shr    %eax
   403ad:	89 c6                	mov    %eax,%esi
   403af:	8b 45 08             	mov    0x8(%ebp),%eax
   403b2:	89 04 24             	mov    %eax,(%esp)
   403b5:	e8 6f 19 00 00       	call   41d29 <strlen>
   403ba:	48                   	dec    %eax
   403bb:	d1 e8                	shr    %eax
   403bd:	8d 14 c5 00 00 00 00 	lea    0x0(,%eax,8),%edx
   403c4:	89 f0                	mov    %esi,%eax
   403c6:	29 d0                	sub    %edx,%eax
   403c8:	c7 44 24 0c 0c 00 00 	movl   $0xc,0xc(%esp)
   403cf:	00 
   403d0:	89 5c 24 08          	mov    %ebx,0x8(%esp)
   403d4:	89 44 24 04          	mov    %eax,0x4(%esp)
   403d8:	8b 45 08             	mov    0x8(%ebp),%eax
   403db:	89 04 24             	mov    %eax,(%esp)
   403de:	e8 50 2a 00 00       	call   42e33 <putstring_xy>
   403e3:	a1 ac b0 04 00       	mov    0x4b0ac,%eax
   403e8:	d1 e8                	shr    %eax
   403ea:	8d 50 20             	lea    0x20(%eax),%edx
   403ed:	a1 a8 b0 04 00       	mov    0x4b0a8,%eax
   403f2:	d1 e8                	shr    %eax
   403f4:	2d b0 00 00 00       	sub    $0xb0,%eax
   403f9:	c7 44 24 0c 0c 00 00 	movl   $0xc,0xc(%esp)
   40400:	00 
   40401:	89 54 24 08          	mov    %edx,0x8(%esp)
   40405:	89 44 24 04          	mov    %eax,0x4(%esp)
   40409:	c7 04 24 00 d0 04 00 	movl   $0x4d000,(%esp)
   40410:	e8 1e 2a 00 00       	call   42e33 <putstring_xy>
   40415:	a1 ac b0 04 00       	mov    0x4b0ac,%eax
   4041a:	d1 e8                	shr    %eax
   4041c:	8d 50 20             	lea    0x20(%eax),%edx
   4041f:	a1 f1 01 04 00       	mov    0x401f1,%eax
   40424:	c7 44 24 10 0c 00 00 	movl   $0xc,0x10(%esp)
   4042b:	00 
   4042c:	89 54 24 0c          	mov    %edx,0xc(%esp)
   40430:	c7 44 24 08 00 00 00 	movl   $0x0,0x8(%esp)
   40437:	00 
   40438:	c7 44 24 04 10 00 00 	movl   $0x10,0x4(%esp)
   4043f:	00 
   40440:	89 04 24             	mov    %eax,(%esp)
   40443:	e8 8b 2b 00 00       	call   42fd3 <putunum_xy>
   40448:	a1 ac b0 04 00       	mov    0x4b0ac,%eax
   4044d:	d1 e8                	shr    %eax
   4044f:	8d 50 30             	lea    0x30(%eax),%edx
   40452:	a1 a8 b0 04 00       	mov    0x4b0a8,%eax
   40457:	d1 e8                	shr    %eax
   40459:	2d b0 00 00 00       	sub    $0xb0,%eax
   4045e:	c7 44 24 0c 0c 00 00 	movl   $0xc,0xc(%esp)
   40465:	00 
   40466:	89 54 24 08          	mov    %edx,0x8(%esp)
   4046a:	89 44 24 04          	mov    %eax,0x4(%esp)
   4046e:	c7 04 24 16 d0 04 00 	movl   $0x4d016,(%esp)
   40475:	e8 b9 29 00 00       	call   42e33 <putstring_xy>
   4047a:	a1 ac b0 04 00       	mov    0x4b0ac,%eax
   4047f:	d1 e8                	shr    %eax
   40481:	83 c0 30             	add    $0x30,%eax
   40484:	c7 44 24 10 0c 00 00 	movl   $0xc,0x10(%esp)
   4048b:	00 
   4048c:	89 44 24 0c          	mov    %eax,0xc(%esp)
   40490:	c7 44 24 08 00 00 00 	movl   $0x0,0x8(%esp)
   40497:	00 
   40498:	c7 44 24 04 10 00 00 	movl   $0x10,0x4(%esp)
   4049f:	00 
   404a0:	8b 45 10             	mov    0x10(%ebp),%eax
   404a3:	89 04 24             	mov    %eax,(%esp)
   404a6:	e8 28 2b 00 00       	call   42fd3 <putunum_xy>
   404ab:	a1 ac b0 04 00       	mov    0x4b0ac,%eax
   404b0:	d1 e8                	shr    %eax
   404b2:	8d 50 40             	lea    0x40(%eax),%edx
   404b5:	a1 a8 b0 04 00       	mov    0x4b0a8,%eax
   404ba:	d1 e8                	shr    %eax
   404bc:	2d b0 00 00 00       	sub    $0xb0,%eax
   404c1:	c7 44 24 0c 0c 00 00 	movl   $0xc,0xc(%esp)
   404c8:	00 
   404c9:	89 54 24 08          	mov    %edx,0x8(%esp)
   404cd:	89 44 24 04          	mov    %eax,0x4(%esp)
   404d1:	c7 04 24 2c d0 04 00 	movl   $0x4d02c,(%esp)
   404d8:	e8 56 29 00 00       	call   42e33 <putstring_xy>
   404dd:	a1 ac b0 04 00       	mov    0x4b0ac,%eax
   404e2:	d1 e8                	shr    %eax
   404e4:	83 c0 40             	add    $0x40,%eax
   404e7:	c7 44 24 10 0c 00 00 	movl   $0xc,0x10(%esp)
   404ee:	00 
   404ef:	89 44 24 0c          	mov    %eax,0xc(%esp)
   404f3:	c7 44 24 08 90 ff ff 	movl   $0xffffff90,0x8(%esp)
   404fa:	ff 
   404fb:	c7 44 24 04 10 00 00 	movl   $0x10,0x4(%esp)
   40502:	00 
   40503:	8b 45 0c             	mov    0xc(%ebp),%eax
   40506:	89 04 24             	mov    %eax,(%esp)
   40509:	e8 c5 2a 00 00       	call   42fd3 <putunum_xy>
   4050e:	a1 ac b0 04 00       	mov    0x4b0ac,%eax
   40513:	d1 e8                	shr    %eax
   40515:	83 c0 40             	add    $0x40,%eax
   40518:	c7 44 24 10 0c 00 00 	movl   $0xc,0x10(%esp)
   4051f:	00 
   40520:	89 44 24 0c          	mov    %eax,0xc(%esp)
   40524:	c7 44 24 08 d8 ff ff 	movl   $0xffffffd8,0x8(%esp)
   4052b:	ff 
   4052c:	c7 44 24 04 10 00 00 	movl   $0x10,0x4(%esp)
   40533:	00 
   40534:	8b 45 1c             	mov    0x1c(%ebp),%eax
   40537:	89 04 24             	mov    %eax,(%esp)
   4053a:	e8 94 2a 00 00       	call   42fd3 <putunum_xy>
   4053f:	a1 ac b0 04 00       	mov    0x4b0ac,%eax
   40544:	d1 e8                	shr    %eax
   40546:	83 c0 40             	add    $0x40,%eax
   40549:	c7 44 24 10 0c 00 00 	movl   $0xc,0x10(%esp)
   40550:	00 
   40551:	89 44 24 0c          	mov    %eax,0xc(%esp)
   40555:	c7 44 24 08 20 00 00 	movl   $0x20,0x8(%esp)
   4055c:	00 
   4055d:	c7 44 24 04 10 00 00 	movl   $0x10,0x4(%esp)
   40564:	00 
   40565:	8b 45 20             	mov    0x20(%ebp),%eax
   40568:	89 04 24             	mov    %eax,(%esp)
   4056b:	e8 63 2a 00 00       	call   42fd3 <putunum_xy>
   40570:	a1 ac b0 04 00       	mov    0x4b0ac,%eax
   40575:	d1 e8                	shr    %eax
   40577:	83 c0 40             	add    $0x40,%eax
   4057a:	c7 44 24 10 0c 00 00 	movl   $0xc,0x10(%esp)
   40581:	00 
   40582:	89 44 24 0c          	mov    %eax,0xc(%esp)
   40586:	c7 44 24 08 68 00 00 	movl   $0x68,0x8(%esp)
   4058d:	00 
   4058e:	c7 44 24 04 10 00 00 	movl   $0x10,0x4(%esp)
   40595:	00 
   40596:	8b 45 24             	mov    0x24(%ebp),%eax
   40599:	89 04 24             	mov    %eax,(%esp)
   4059c:	e8 32 2a 00 00       	call   42fd3 <putunum_xy>
   405a1:	a1 ac b0 04 00       	mov    0x4b0ac,%eax
   405a6:	d1 e8                	shr    %eax
   405a8:	8d 50 50             	lea    0x50(%eax),%edx
   405ab:	8b 45 28             	mov    0x28(%ebp),%eax
   405ae:	c7 44 24 10 0c 00 00 	movl   $0xc,0x10(%esp)
   405b5:	00 
   405b6:	89 54 24 0c          	mov    %edx,0xc(%esp)
   405ba:	c7 44 24 08 90 ff ff 	movl   $0xffffff90,0x8(%esp)
   405c1:	ff 
   405c2:	c7 44 24 04 10 00 00 	movl   $0x10,0x4(%esp)
   405c9:	00 
   405ca:	89 04 24             	mov    %eax,(%esp)
   405cd:	e8 01 2a 00 00       	call   42fd3 <putunum_xy>
   405d2:	a1 ac b0 04 00       	mov    0x4b0ac,%eax
   405d7:	d1 e8                	shr    %eax
   405d9:	83 c0 50             	add    $0x50,%eax
   405dc:	c7 44 24 10 0c 00 00 	movl   $0xc,0x10(%esp)
   405e3:	00 
   405e4:	89 44 24 0c          	mov    %eax,0xc(%esp)
   405e8:	c7 44 24 08 d8 ff ff 	movl   $0xffffffd8,0x8(%esp)
   405ef:	ff 
   405f0:	c7 44 24 04 10 00 00 	movl   $0x10,0x4(%esp)
   405f7:	00 
   405f8:	8b 45 2c             	mov    0x2c(%ebp),%eax
   405fb:	89 04 24             	mov    %eax,(%esp)
   405fe:	e8 d0 29 00 00       	call   42fd3 <putunum_xy>
   40603:	a1 ac b0 04 00       	mov    0x4b0ac,%eax
   40608:	d1 e8                	shr    %eax
   4060a:	83 c0 50             	add    $0x50,%eax
   4060d:	c7 44 24 10 0c 00 00 	movl   $0xc,0x10(%esp)
   40614:	00 
   40615:	89 44 24 0c          	mov    %eax,0xc(%esp)
   40619:	c7 44 24 08 20 00 00 	movl   $0x20,0x8(%esp)
   40620:	00 
   40621:	c7 44 24 04 10 00 00 	movl   $0x10,0x4(%esp)
   40628:	00 
   40629:	8b 45 30             	mov    0x30(%ebp),%eax
   4062c:	89 04 24             	mov    %eax,(%esp)
   4062f:	e8 9f 29 00 00       	call   42fd3 <putunum_xy>
   40634:	a1 ac b0 04 00       	mov    0x4b0ac,%eax
   40639:	d1 e8                	shr    %eax
   4063b:	83 c0 50             	add    $0x50,%eax
   4063e:	c7 44 24 10 0c 00 00 	movl   $0xc,0x10(%esp)
   40645:	00 
   40646:	89 44 24 0c          	mov    %eax,0xc(%esp)
   4064a:	c7 44 24 08 68 00 00 	movl   $0x68,0x8(%esp)
   40651:	00 
   40652:	c7 44 24 04 10 00 00 	movl   $0x10,0x4(%esp)
   40659:	00 
   4065a:	8b 45 34             	mov    0x34(%ebp),%eax
   4065d:	89 04 24             	mov    %eax,(%esp)
   40660:	e8 6e 29 00 00       	call   42fd3 <putunum_xy>
   40665:	a1 ac b0 04 00       	mov    0x4b0ac,%eax
   4066a:	d1 e8                	shr    %eax
   4066c:	83 c0 60             	add    $0x60,%eax
   4066f:	c7 44 24 10 0c 00 00 	movl   $0xc,0x10(%esp)
   40676:	00 
   40677:	89 44 24 0c          	mov    %eax,0xc(%esp)
   4067b:	c7 44 24 08 90 ff ff 	movl   $0xffffff90,0x8(%esp)
   40682:	ff 
   40683:	c7 44 24 04 10 00 00 	movl   $0x10,0x4(%esp)
   4068a:	00 
   4068b:	8b 45 38             	mov    0x38(%ebp),%eax
   4068e:	89 04 24             	mov    %eax,(%esp)
   40691:	e8 3d 29 00 00       	call   42fd3 <putunum_xy>
   40696:	a1 ac b0 04 00       	mov    0x4b0ac,%eax
   4069b:	d1 e8                	shr    %eax
   4069d:	83 c0 60             	add    $0x60,%eax
   406a0:	c7 44 24 10 0c 00 00 	movl   $0xc,0x10(%esp)
   406a7:	00 
   406a8:	89 44 24 0c          	mov    %eax,0xc(%esp)
   406ac:	c7 44 24 08 d8 ff ff 	movl   $0xffffffd8,0x8(%esp)
   406b3:	ff 
   406b4:	c7 44 24 04 10 00 00 	movl   $0x10,0x4(%esp)
   406bb:	00 
   406bc:	8b 45 14             	mov    0x14(%ebp),%eax
   406bf:	89 04 24             	mov    %eax,(%esp)
   406c2:	e8 0c 29 00 00       	call   42fd3 <putunum_xy>
   406c7:	a1 ac b0 04 00       	mov    0x4b0ac,%eax
   406cc:	d1 e8                	shr    %eax
   406ce:	83 c0 60             	add    $0x60,%eax
   406d1:	c7 44 24 10 0c 00 00 	movl   $0xc,0x10(%esp)
   406d8:	00 
   406d9:	89 44 24 0c          	mov    %eax,0xc(%esp)
   406dd:	c7 44 24 08 20 00 00 	movl   $0x20,0x8(%esp)
   406e4:	00 
   406e5:	c7 44 24 04 10 00 00 	movl   $0x10,0x4(%esp)
   406ec:	00 
   406ed:	8b 45 18             	mov    0x18(%ebp),%eax
   406f0:	89 04 24             	mov    %eax,(%esp)
   406f3:	e8 db 28 00 00       	call   42fd3 <putunum_xy>
   406f8:	a1 ac b0 04 00       	mov    0x4b0ac,%eax
   406fd:	d1 e8                	shr    %eax
   406ff:	8d 50 78             	lea    0x78(%eax),%edx
   40702:	a1 a8 b0 04 00       	mov    0x4b0a8,%eax
   40707:	d1 e8                	shr    %eax
   40709:	83 e8 38             	sub    $0x38,%eax
   4070c:	c7 44 24 0c 0c 00 00 	movl   $0xc,0xc(%esp)
   40713:	00 
   40714:	89 54 24 08          	mov    %edx,0x8(%esp)
   40718:	89 44 24 04          	mov    %eax,0x4(%esp)
   4071c:	c7 04 24 32 d0 04 00 	movl   $0x4d032,(%esp)
   40723:	e8 0b 27 00 00       	call   42e33 <putstring_xy>
   40728:	a1 ac b0 04 00       	mov    0x4b0ac,%eax
   4072d:	d1 e8                	shr    %eax
   4072f:	8d 50 78             	lea    0x78(%eax),%edx
   40732:	8b 45 28             	mov    0x28(%ebp),%eax
   40735:	8b 00                	mov    (%eax),%eax
   40737:	c7 44 24 10 0c 00 00 	movl   $0xc,0x10(%esp)
   4073e:	00 
   4073f:	89 54 24 0c          	mov    %edx,0xc(%esp)
   40743:	c7 44 24 08 20 00 00 	movl   $0x20,0x8(%esp)
   4074a:	00 
   4074b:	c7 44 24 04 10 00 00 	movl   $0x10,0x4(%esp)
   40752:	00 
   40753:	89 04 24             	mov    %eax,(%esp)
   40756:	e8 78 28 00 00       	call   42fd3 <putunum_xy>
   4075b:	a1 ac b0 04 00       	mov    0x4b0ac,%eax
   40760:	d1 e8                	shr    %eax
   40762:	8d 90 88 00 00 00    	lea    0x88(%eax),%edx
   40768:	8b 45 28             	mov    0x28(%ebp),%eax
   4076b:	83 c0 10             	add    $0x10,%eax
   4076e:	8b 00                	mov    (%eax),%eax
   40770:	c7 44 24 10 0c 00 00 	movl   $0xc,0x10(%esp)
   40777:	00 
   40778:	89 54 24 0c          	mov    %edx,0xc(%esp)
   4077c:	c7 44 24 08 20 00 00 	movl   $0x20,0x8(%esp)
   40783:	00 
   40784:	c7 44 24 04 10 00 00 	movl   $0x10,0x4(%esp)
   4078b:	00 
   4078c:	89 04 24             	mov    %eax,(%esp)
   4078f:	e8 3f 28 00 00       	call   42fd3 <putunum_xy>
   40794:	a1 ac b0 04 00       	mov    0x4b0ac,%eax
   40799:	d1 e8                	shr    %eax
   4079b:	8d 90 98 00 00 00    	lea    0x98(%eax),%edx
   407a1:	8b 45 28             	mov    0x28(%ebp),%eax
   407a4:	83 c0 20             	add    $0x20,%eax
   407a7:	8b 00                	mov    (%eax),%eax
   407a9:	c7 44 24 10 0c 00 00 	movl   $0xc,0x10(%esp)
   407b0:	00 
   407b1:	89 54 24 0c          	mov    %edx,0xc(%esp)
   407b5:	c7 44 24 08 20 00 00 	movl   $0x20,0x8(%esp)
   407bc:	00 
   407bd:	c7 44 24 04 10 00 00 	movl   $0x10,0x4(%esp)
   407c4:	00 
   407c5:	89 04 24             	mov    %eax,(%esp)
   407c8:	e8 06 28 00 00       	call   42fd3 <putunum_xy>
   407cd:	a1 ac b0 04 00       	mov    0x4b0ac,%eax
   407d2:	d1 e8                	shr    %eax
   407d4:	8d 90 a8 00 00 00    	lea    0xa8(%eax),%edx
   407da:	8b 45 28             	mov    0x28(%ebp),%eax
   407dd:	83 c0 30             	add    $0x30,%eax
   407e0:	8b 00                	mov    (%eax),%eax
   407e2:	c7 44 24 10 0c 00 00 	movl   $0xc,0x10(%esp)
   407e9:	00 
   407ea:	89 54 24 0c          	mov    %edx,0xc(%esp)
   407ee:	c7 44 24 08 20 00 00 	movl   $0x20,0x8(%esp)
   407f5:	00 
   407f6:	c7 44 24 04 10 00 00 	movl   $0x10,0x4(%esp)
   407fd:	00 
   407fe:	89 04 24             	mov    %eax,(%esp)
   40801:	e8 cd 27 00 00       	call   42fd3 <putunum_xy>
   40806:	a1 ac b0 04 00       	mov    0x4b0ac,%eax
   4080b:	d1 e8                	shr    %eax
   4080d:	8d 90 b8 00 00 00    	lea    0xb8(%eax),%edx
   40813:	8b 45 28             	mov    0x28(%ebp),%eax
   40816:	83 c0 40             	add    $0x40,%eax
   40819:	8b 00                	mov    (%eax),%eax
   4081b:	c7 44 24 10 0c 00 00 	movl   $0xc,0x10(%esp)
   40822:	00 
   40823:	89 54 24 0c          	mov    %edx,0xc(%esp)
   40827:	c7 44 24 08 20 00 00 	movl   $0x20,0x8(%esp)
   4082e:	00 
   4082f:	c7 44 24 04 10 00 00 	movl   $0x10,0x4(%esp)
   40836:	00 
   40837:	89 04 24             	mov    %eax,(%esp)
   4083a:	e8 94 27 00 00       	call   42fd3 <putunum_xy>
   4083f:	a1 ac b0 04 00       	mov    0x4b0ac,%eax
   40844:	d1 e8                	shr    %eax
   40846:	8d 90 c8 00 00 00    	lea    0xc8(%eax),%edx
   4084c:	8b 45 28             	mov    0x28(%ebp),%eax
   4084f:	83 c0 50             	add    $0x50,%eax
   40852:	8b 00                	mov    (%eax),%eax
   40854:	c7 44 24 10 0c 00 00 	movl   $0xc,0x10(%esp)
   4085b:	00 
   4085c:	89 54 24 0c          	mov    %edx,0xc(%esp)
   40860:	c7 44 24 08 20 00 00 	movl   $0x20,0x8(%esp)
   40867:	00 
   40868:	c7 44 24 04 10 00 00 	movl   $0x10,0x4(%esp)
   4086f:	00 
   40870:	89 04 24             	mov    %eax,(%esp)
   40873:	e8 5b 27 00 00       	call   42fd3 <putunum_xy>
   40878:	0f b6 05 ad c6 04 00 	movzbl 0x4c6ad,%eax
   4087f:	3c 02                	cmp    $0x2,%al
   40881:	0f 84 96 00 00 00    	je     4091d <exception_handler+0x588>
   40887:	c7 45 f4 00 00 00 00 	movl   $0x0,-0xc(%ebp)
   4088e:	e9 80 00 00 00       	jmp    40913 <exception_handler+0x57e>
   40893:	c7 45 f0 00 00 00 00 	movl   $0x0,-0x10(%ebp)
   4089a:	eb 6e                	jmp    4090a <exception_handler+0x575>
   4089c:	a1 ac b0 04 00       	mov    0x4b0ac,%eax
   408a1:	d1 e8                	shr    %eax
   408a3:	89 c2                	mov    %eax,%edx
   408a5:	8b 45 f0             	mov    -0x10(%ebp),%eax
   408a8:	01 d0                	add    %edx,%eax
   408aa:	8d 88 6f ff ff ff    	lea    -0x91(%eax),%ecx
   408b0:	a1 a8 b0 04 00       	mov    0x4b0a8,%eax
   408b5:	d1 e8                	shr    %eax
   408b7:	89 c2                	mov    %eax,%edx
   408b9:	8b 45 f4             	mov    -0xc(%ebp),%eax
   408bc:	01 d0                	add    %edx,%eax
   408be:	8d 50 c2             	lea    -0x3e(%eax),%edx
   408c1:	8b 45 f4             	mov    -0xc(%ebp),%eax
   408c4:	8d 58 03             	lea    0x3(%eax),%ebx
   408c7:	85 c0                	test   %eax,%eax
   408c9:	0f 48 c3             	cmovs  %ebx,%eax
   408cc:	c1 f8 02             	sar    $0x2,%eax
   408cf:	89 c6                	mov    %eax,%esi
   408d1:	8b 45 f0             	mov    -0x10(%ebp),%eax
   408d4:	8d 58 03             	lea    0x3(%eax),%ebx
   408d7:	85 c0                	test   %eax,%eax
   408d9:	0f 48 c3             	cmovs  %ebx,%eax
   408dc:	c1 f8 02             	sar    $0x2,%eax
   408df:	89 c3                	mov    %eax,%ebx
   408e1:	89 d8                	mov    %ebx,%eax
   408e3:	c1 e0 05             	shl    $0x5,%eax
   408e6:	29 d8                	sub    %ebx,%eax
   408e8:	01 f0                	add    %esi,%eax
   408ea:	c1 e0 02             	shl    $0x2,%eax
   408ed:	83 c0 12             	add    $0x12,%eax
   408f0:	05 60 80 04 00       	add    $0x48060,%eax
   408f5:	8b 00                	mov    (%eax),%eax
   408f7:	89 4c 24 08          	mov    %ecx,0x8(%esp)
   408fb:	89 54 24 04          	mov    %edx,0x4(%esp)
   408ff:	89 04 24             	mov    %eax,(%esp)
   40902:	e8 34 1f 00 00       	call   4283b <putpixel>
   40907:	ff 45 f0             	incl   -0x10(%ebp)
   4090a:	83 7d f0 7f          	cmpl   $0x7f,-0x10(%ebp)
   4090e:	7e 8c                	jle    4089c <exception_handler+0x507>
   40910:	ff 45 f4             	incl   -0xc(%ebp)
   40913:	83 7d f4 7b          	cmpl   $0x7b,-0xc(%ebp)
   40917:	0f 8e 76 ff ff ff    	jle    40893 <exception_handler+0x4fe>
   4091d:	c7 05 f1 01 04 00 00 	movl   $0x0,0x401f1
   40924:	00 00 00 
   40927:	90                   	nop
   40928:	83 c4 30             	add    $0x30,%esp
   4092b:	5b                   	pop    %ebx
   4092c:	5e                   	pop    %esi
   4092d:	5d                   	pop    %ebp
   4092e:	c3                   	ret    

0004092f <k_heapBMInit>:
   4092f:	55                   	push   %ebp
   40930:	89 e5                	mov    %esp,%ebp
   40932:	8b 45 08             	mov    0x8(%ebp),%eax
   40935:	c7 00 00 00 00 00    	movl   $0x0,(%eax)
   4093b:	90                   	nop
   4093c:	5d                   	pop    %ebp
   4093d:	c3                   	ret    

0004093e <k_heapBMAddBlock>:
   4093e:	55                   	push   %ebp
   4093f:	89 e5                	mov    %esp,%ebp
   40941:	83 ec 38             	sub    $0x38,%esp
   40944:	8b 45 0c             	mov    0xc(%ebp),%eax
   40947:	89 45 f4             	mov    %eax,-0xc(%ebp)
   4094a:	8b 45 0c             	mov    0xc(%ebp),%eax
   4094d:	83 c0 1c             	add    $0x1c,%eax
   40950:	89 45 f0             	mov    %eax,-0x10(%ebp)
   40953:	8b 45 10             	mov    0x10(%ebp),%eax
   40956:	8d 48 e4             	lea    -0x1c(%eax),%ecx
   40959:	8b 45 0c             	mov    0xc(%ebp),%eax
   4095c:	8d 50 1c             	lea    0x1c(%eax),%edx
   4095f:	c7 44 24 18 01 00 00 	movl   $0x1,0x18(%esp)
   40966:	00 
   40967:	8b 45 f0             	mov    -0x10(%ebp),%eax
   4096a:	89 44 24 14          	mov    %eax,0x14(%esp)
   4096e:	8b 45 f4             	mov    -0xc(%ebp),%eax
   40971:	89 44 24 10          	mov    %eax,0x10(%esp)
   40975:	8b 45 14             	mov    0x14(%ebp),%eax
   40978:	89 44 24 0c          	mov    %eax,0xc(%esp)
   4097c:	89 4c 24 08          	mov    %ecx,0x8(%esp)
   40980:	89 54 24 04          	mov    %edx,0x4(%esp)
   40984:	8b 45 08             	mov    0x8(%ebp),%eax
   40987:	89 04 24             	mov    %eax,(%esp)
   4098a:	e8 14 00 00 00       	call   409a3 <k_heapBMAddBlockEx>
   4098f:	89 ec                	mov    %ebp,%esp
   40991:	5d                   	pop    %ebp
   40992:	c3                   	ret    

00040993 <k_heapBMGetBMSize>:
   40993:	55                   	push   %ebp
   40994:	89 e5                	mov    %esp,%ebp
   40996:	8b 45 08             	mov    0x8(%ebp),%eax
   40999:	ba 00 00 00 00       	mov    $0x0,%edx
   4099e:	f7 75 0c             	divl   0xc(%ebp)
   409a1:	5d                   	pop    %ebp
   409a2:	c3                   	ret    

000409a3 <k_heapBMAddBlockEx>:
   409a3:	55                   	push   %ebp
   409a4:	89 e5                	mov    %esp,%ebp
   409a6:	83 ec 14             	sub    $0x14,%esp
   409a9:	8b 45 20             	mov    0x20(%ebp),%eax
   409ac:	88 45 ec             	mov    %al,-0x14(%ebp)
   409af:	8b 45 18             	mov    0x18(%ebp),%eax
   409b2:	8b 55 10             	mov    0x10(%ebp),%edx
   409b5:	89 50 04             	mov    %edx,0x4(%eax)
   409b8:	8b 45 18             	mov    0x18(%ebp),%eax
   409bb:	8b 55 14             	mov    0x14(%ebp),%edx
   409be:	89 50 0c             	mov    %edx,0xc(%eax)
   409c1:	8b 45 18             	mov    0x18(%ebp),%eax
   409c4:	8b 55 0c             	mov    0xc(%ebp),%edx
   409c7:	89 50 14             	mov    %edx,0x14(%eax)
   409ca:	8b 45 18             	mov    0x18(%ebp),%eax
   409cd:	8b 55 1c             	mov    0x1c(%ebp),%edx
   409d0:	89 50 18             	mov    %edx,0x18(%eax)
   409d3:	8b 45 08             	mov    0x8(%ebp),%eax
   409d6:	8b 10                	mov    (%eax),%edx
   409d8:	8b 45 18             	mov    0x18(%ebp),%eax
   409db:	89 10                	mov    %edx,(%eax)
   409dd:	8b 45 08             	mov    0x8(%ebp),%eax
   409e0:	8b 55 18             	mov    0x18(%ebp),%edx
   409e3:	89 10                	mov    %edx,(%eax)
   409e5:	8b 45 10             	mov    0x10(%ebp),%eax
   409e8:	ba 00 00 00 00       	mov    $0x0,%edx
   409ed:	f7 75 14             	divl   0x14(%ebp)
   409f0:	89 45 f8             	mov    %eax,-0x8(%ebp)
   409f3:	c7 45 fc 00 00 00 00 	movl   $0x0,-0x4(%ebp)
   409fa:	eb 0e                	jmp    40a0a <k_heapBMAddBlockEx+0x67>
   409fc:	8b 55 1c             	mov    0x1c(%ebp),%edx
   409ff:	8b 45 fc             	mov    -0x4(%ebp),%eax
   40a02:	01 d0                	add    %edx,%eax
   40a04:	c6 00 00             	movb   $0x0,(%eax)
   40a07:	ff 45 fc             	incl   -0x4(%ebp)
   40a0a:	8b 45 fc             	mov    -0x4(%ebp),%eax
   40a0d:	3b 45 f8             	cmp    -0x8(%ebp),%eax
   40a10:	72 ea                	jb     409fc <k_heapBMAddBlockEx+0x59>
   40a12:	8b 45 f8             	mov    -0x8(%ebp),%eax
   40a15:	ba 00 00 00 00       	mov    $0x0,%edx
   40a1a:	f7 75 14             	divl   0x14(%ebp)
   40a1d:	0f af 45 14          	imul   0x14(%ebp),%eax
   40a21:	39 45 f8             	cmp    %eax,-0x8(%ebp)
   40a24:	76 0e                	jbe    40a34 <k_heapBMAddBlockEx+0x91>
   40a26:	8b 45 f8             	mov    -0x8(%ebp),%eax
   40a29:	ba 00 00 00 00       	mov    $0x0,%edx
   40a2e:	f7 75 14             	divl   0x14(%ebp)
   40a31:	40                   	inc    %eax
   40a32:	eb 0b                	jmp    40a3f <k_heapBMAddBlockEx+0x9c>
   40a34:	8b 45 f8             	mov    -0x8(%ebp),%eax
   40a37:	ba 00 00 00 00       	mov    $0x0,%edx
   40a3c:	f7 75 14             	divl   0x14(%ebp)
   40a3f:	89 45 f8             	mov    %eax,-0x8(%ebp)
   40a42:	80 7d ec 00          	cmpb   $0x0,-0x14(%ebp)
   40a46:	74 1f                	je     40a67 <k_heapBMAddBlockEx+0xc4>
   40a48:	c7 45 fc 00 00 00 00 	movl   $0x0,-0x4(%ebp)
   40a4f:	eb 0e                	jmp    40a5f <k_heapBMAddBlockEx+0xbc>
   40a51:	8b 55 1c             	mov    0x1c(%ebp),%edx
   40a54:	8b 45 fc             	mov    -0x4(%ebp),%eax
   40a57:	01 d0                	add    %edx,%eax
   40a59:	c6 00 05             	movb   $0x5,(%eax)
   40a5c:	ff 45 fc             	incl   -0x4(%ebp)
   40a5f:	8b 45 fc             	mov    -0x4(%ebp),%eax
   40a62:	3b 45 f8             	cmp    -0x8(%ebp),%eax
   40a65:	72 ea                	jb     40a51 <k_heapBMAddBlockEx+0xae>
   40a67:	8b 45 f8             	mov    -0x8(%ebp),%eax
   40a6a:	8d 50 ff             	lea    -0x1(%eax),%edx
   40a6d:	8b 45 18             	mov    0x18(%ebp),%eax
   40a70:	89 50 10             	mov    %edx,0x10(%eax)
   40a73:	8b 45 18             	mov    0x18(%ebp),%eax
   40a76:	8b 55 f8             	mov    -0x8(%ebp),%edx
   40a79:	89 50 08             	mov    %edx,0x8(%eax)
   40a7c:	b8 01 00 00 00       	mov    $0x1,%eax
   40a81:	89 ec                	mov    %ebp,%esp
   40a83:	5d                   	pop    %ebp
   40a84:	c3                   	ret    

00040a85 <k_heapBMGetNID>:
   40a85:	55                   	push   %ebp
   40a86:	89 e5                	mov    %esp,%ebp
   40a88:	83 ec 18             	sub    $0x18,%esp
   40a8b:	8b 45 08             	mov    0x8(%ebp),%eax
   40a8e:	8b 55 0c             	mov    0xc(%ebp),%edx
   40a91:	88 45 ec             	mov    %al,-0x14(%ebp)
   40a94:	88 d0                	mov    %dl,%al
   40a96:	88 45 e8             	mov    %al,-0x18(%ebp)
   40a99:	0f b6 45 ec          	movzbl -0x14(%ebp),%eax
   40a9d:	fe c0                	inc    %al
   40a9f:	88 45 ff             	mov    %al,-0x1(%ebp)
   40aa2:	eb 03                	jmp    40aa7 <k_heapBMGetNID+0x22>
   40aa4:	fe 45 ff             	incb   -0x1(%ebp)
   40aa7:	0f b6 45 ff          	movzbl -0x1(%ebp),%eax
   40aab:	3a 45 e8             	cmp    -0x18(%ebp),%al
   40aae:	74 f4                	je     40aa4 <k_heapBMGetNID+0x1f>
   40ab0:	80 7d ff 00          	cmpb   $0x0,-0x1(%ebp)
   40ab4:	74 ee                	je     40aa4 <k_heapBMGetNID+0x1f>
   40ab6:	0f b6 45 ff          	movzbl -0x1(%ebp),%eax
   40aba:	89 ec                	mov    %ebp,%esp
   40abc:	5d                   	pop    %ebp
   40abd:	c3                   	ret    

00040abe <k_heapBMAlloc>:
   40abe:	55                   	push   %ebp
   40abf:	89 e5                	mov    %esp,%ebp
   40ac1:	83 ec 18             	sub    $0x18,%esp
   40ac4:	c7 44 24 08 00 00 00 	movl   $0x0,0x8(%esp)
   40acb:	00 
   40acc:	8b 45 0c             	mov    0xc(%ebp),%eax
   40acf:	89 44 24 04          	mov    %eax,0x4(%esp)
   40ad3:	8b 45 08             	mov    0x8(%ebp),%eax
   40ad6:	89 04 24             	mov    %eax,(%esp)
   40ad9:	e8 04 00 00 00       	call   40ae2 <k_heapBMAllocBound>
   40ade:	89 ec                	mov    %ebp,%esp
   40ae0:	5d                   	pop    %ebp
   40ae1:	c3                   	ret    

00040ae2 <k_heapBMAllocBound>:
   40ae2:	55                   	push   %ebp
   40ae3:	89 e5                	mov    %esp,%ebp
   40ae5:	83 ec 38             	sub    $0x38,%esp
   40ae8:	8b 45 10             	mov    0x10(%ebp),%eax
   40aeb:	ba ff ff ff ff       	mov    $0xffffffff,%edx
   40af0:	88 c1                	mov    %al,%cl
   40af2:	d3 e2                	shl    %cl,%edx
   40af4:	89 d0                	mov    %edx,%eax
   40af6:	f7 d0                	not    %eax
   40af8:	89 45 10             	mov    %eax,0x10(%ebp)
   40afb:	8b 45 08             	mov    0x8(%ebp),%eax
   40afe:	8b 00                	mov    (%eax),%eax
   40b00:	89 45 fc             	mov    %eax,-0x4(%ebp)
   40b03:	e9 ea 01 00 00       	jmp    40cf2 <k_heapBMAllocBound+0x210>
   40b08:	8b 45 fc             	mov    -0x4(%ebp),%eax
   40b0b:	8b 50 04             	mov    0x4(%eax),%edx
   40b0e:	8b 45 fc             	mov    -0x4(%ebp),%eax
   40b11:	8b 48 08             	mov    0x8(%eax),%ecx
   40b14:	8b 45 fc             	mov    -0x4(%ebp),%eax
   40b17:	8b 40 0c             	mov    0xc(%eax),%eax
   40b1a:	0f af c8             	imul   %eax,%ecx
   40b1d:	89 d0                	mov    %edx,%eax
   40b1f:	29 c8                	sub    %ecx,%eax
   40b21:	39 45 0c             	cmp    %eax,0xc(%ebp)
   40b24:	0f 87 c0 01 00 00    	ja     40cea <k_heapBMAllocBound+0x208>
   40b2a:	8b 45 fc             	mov    -0x4(%ebp),%eax
   40b2d:	8b 40 04             	mov    0x4(%eax),%eax
   40b30:	8b 55 fc             	mov    -0x4(%ebp),%edx
   40b33:	8b 4a 0c             	mov    0xc(%edx),%ecx
   40b36:	ba 00 00 00 00       	mov    $0x0,%edx
   40b3b:	f7 f1                	div    %ecx
   40b3d:	89 45 ec             	mov    %eax,-0x14(%ebp)
   40b40:	8b 45 fc             	mov    -0x4(%ebp),%eax
   40b43:	8b 48 0c             	mov    0xc(%eax),%ecx
   40b46:	8b 45 0c             	mov    0xc(%ebp),%eax
   40b49:	ba 00 00 00 00       	mov    $0x0,%edx
   40b4e:	f7 f1                	div    %ecx
   40b50:	89 c2                	mov    %eax,%edx
   40b52:	8b 45 fc             	mov    -0x4(%ebp),%eax
   40b55:	8b 40 0c             	mov    0xc(%eax),%eax
   40b58:	0f af c2             	imul   %edx,%eax
   40b5b:	39 45 0c             	cmp    %eax,0xc(%ebp)
   40b5e:	76 13                	jbe    40b73 <k_heapBMAllocBound+0x91>
   40b60:	8b 45 fc             	mov    -0x4(%ebp),%eax
   40b63:	8b 48 0c             	mov    0xc(%eax),%ecx
   40b66:	8b 45 0c             	mov    0xc(%ebp),%eax
   40b69:	ba 00 00 00 00       	mov    $0x0,%edx
   40b6e:	f7 f1                	div    %ecx
   40b70:	40                   	inc    %eax
   40b71:	eb 10                	jmp    40b83 <k_heapBMAllocBound+0xa1>
   40b73:	8b 45 fc             	mov    -0x4(%ebp),%eax
   40b76:	8b 48 0c             	mov    0xc(%eax),%ecx
   40b79:	8b 45 0c             	mov    0xc(%ebp),%eax
   40b7c:	ba 00 00 00 00       	mov    $0x0,%edx
   40b81:	f7 f1                	div    %ecx
   40b83:	89 45 e8             	mov    %eax,-0x18(%ebp)
   40b86:	8b 45 fc             	mov    -0x4(%ebp),%eax
   40b89:	8b 40 18             	mov    0x18(%eax),%eax
   40b8c:	89 45 e4             	mov    %eax,-0x1c(%ebp)
   40b8f:	8b 45 fc             	mov    -0x4(%ebp),%eax
   40b92:	8b 40 10             	mov    0x10(%eax),%eax
   40b95:	40                   	inc    %eax
   40b96:	39 45 ec             	cmp    %eax,-0x14(%ebp)
   40b99:	76 09                	jbe    40ba4 <k_heapBMAllocBound+0xc2>
   40b9b:	8b 45 fc             	mov    -0x4(%ebp),%eax
   40b9e:	8b 40 10             	mov    0x10(%eax),%eax
   40ba1:	40                   	inc    %eax
   40ba2:	eb 05                	jmp    40ba9 <k_heapBMAllocBound+0xc7>
   40ba4:	b8 00 00 00 00       	mov    $0x0,%eax
   40ba9:	89 45 f8             	mov    %eax,-0x8(%ebp)
   40bac:	e9 2a 01 00 00       	jmp    40cdb <k_heapBMAllocBound+0x1f9>
   40bb1:	8b 45 f8             	mov    -0x8(%ebp),%eax
   40bb4:	3b 45 ec             	cmp    -0x14(%ebp),%eax
   40bb7:	72 07                	jb     40bc0 <k_heapBMAllocBound+0xde>
   40bb9:	c7 45 f8 00 00 00 00 	movl   $0x0,-0x8(%ebp)
   40bc0:	8b 45 fc             	mov    -0x4(%ebp),%eax
   40bc3:	8b 40 0c             	mov    0xc(%eax),%eax
   40bc6:	0f af 45 f8          	imul   -0x8(%ebp),%eax
   40bca:	89 c2                	mov    %eax,%edx
   40bcc:	8b 45 fc             	mov    -0x4(%ebp),%eax
   40bcf:	8b 40 14             	mov    0x14(%eax),%eax
   40bd2:	01 d0                	add    %edx,%eax
   40bd4:	23 45 10             	and    0x10(%ebp),%eax
   40bd7:	85 c0                	test   %eax,%eax
   40bd9:	0f 85 f8 00 00 00    	jne    40cd7 <k_heapBMAllocBound+0x1f5>
   40bdf:	8b 55 e4             	mov    -0x1c(%ebp),%edx
   40be2:	8b 45 f8             	mov    -0x8(%ebp),%eax
   40be5:	01 d0                	add    %edx,%eax
   40be7:	0f b6 00             	movzbl (%eax),%eax
   40bea:	84 c0                	test   %al,%al
   40bec:	0f 85 e6 00 00 00    	jne    40cd8 <k_heapBMAllocBound+0x1f6>
   40bf2:	8b 45 ec             	mov    -0x14(%ebp),%eax
   40bf5:	2b 45 f8             	sub    -0x8(%ebp),%eax
   40bf8:	89 45 e0             	mov    %eax,-0x20(%ebp)
   40bfb:	c7 45 f4 00 00 00 00 	movl   $0x0,-0xc(%ebp)
   40c02:	eb 03                	jmp    40c07 <k_heapBMAllocBound+0x125>
   40c04:	ff 45 f4             	incl   -0xc(%ebp)
   40c07:	8b 55 f8             	mov    -0x8(%ebp),%edx
   40c0a:	8b 45 f4             	mov    -0xc(%ebp),%eax
   40c0d:	01 c2                	add    %eax,%edx
   40c0f:	8b 45 e4             	mov    -0x1c(%ebp),%eax
   40c12:	01 d0                	add    %edx,%eax
   40c14:	0f b6 00             	movzbl (%eax),%eax
   40c17:	84 c0                	test   %al,%al
   40c19:	75 10                	jne    40c2b <k_heapBMAllocBound+0x149>
   40c1b:	8b 45 f4             	mov    -0xc(%ebp),%eax
   40c1e:	3b 45 e8             	cmp    -0x18(%ebp),%eax
   40c21:	73 08                	jae    40c2b <k_heapBMAllocBound+0x149>
   40c23:	8b 45 f4             	mov    -0xc(%ebp),%eax
   40c26:	3b 45 e0             	cmp    -0x20(%ebp),%eax
   40c29:	72 d9                	jb     40c04 <k_heapBMAllocBound+0x122>
   40c2b:	8b 45 f4             	mov    -0xc(%ebp),%eax
   40c2e:	3b 45 e8             	cmp    -0x18(%ebp),%eax
   40c31:	0f 85 92 00 00 00    	jne    40cc9 <k_heapBMAllocBound+0x1e7>
   40c37:	8b 55 f8             	mov    -0x8(%ebp),%edx
   40c3a:	8b 45 f4             	mov    -0xc(%ebp),%eax
   40c3d:	01 c2                	add    %eax,%edx
   40c3f:	8b 45 e4             	mov    -0x1c(%ebp),%eax
   40c42:	01 d0                	add    %edx,%eax
   40c44:	0f b6 00             	movzbl (%eax),%eax
   40c47:	0f b6 d0             	movzbl %al,%edx
   40c4a:	8b 45 f8             	mov    -0x8(%ebp),%eax
   40c4d:	8d 48 ff             	lea    -0x1(%eax),%ecx
   40c50:	8b 45 e4             	mov    -0x1c(%ebp),%eax
   40c53:	01 c8                	add    %ecx,%eax
   40c55:	0f b6 00             	movzbl (%eax),%eax
   40c58:	0f b6 c0             	movzbl %al,%eax
   40c5b:	89 54 24 04          	mov    %edx,0x4(%esp)
   40c5f:	89 04 24             	mov    %eax,(%esp)
   40c62:	e8 1e fe ff ff       	call   40a85 <k_heapBMGetNID>
   40c67:	88 45 df             	mov    %al,-0x21(%ebp)
   40c6a:	c7 45 f0 00 00 00 00 	movl   $0x0,-0x10(%ebp)
   40c71:	eb 16                	jmp    40c89 <k_heapBMAllocBound+0x1a7>
   40c73:	8b 55 f8             	mov    -0x8(%ebp),%edx
   40c76:	8b 45 f0             	mov    -0x10(%ebp),%eax
   40c79:	01 c2                	add    %eax,%edx
   40c7b:	8b 45 e4             	mov    -0x1c(%ebp),%eax
   40c7e:	01 d0                	add    %edx,%eax
   40c80:	0f b6 55 df          	movzbl -0x21(%ebp),%edx
   40c84:	88 10                	mov    %dl,(%eax)
   40c86:	ff 45 f0             	incl   -0x10(%ebp)
   40c89:	8b 45 f0             	mov    -0x10(%ebp),%eax
   40c8c:	3b 45 f4             	cmp    -0xc(%ebp),%eax
   40c8f:	72 e2                	jb     40c73 <k_heapBMAllocBound+0x191>
   40c91:	8b 55 f8             	mov    -0x8(%ebp),%edx
   40c94:	8b 45 e8             	mov    -0x18(%ebp),%eax
   40c97:	01 d0                	add    %edx,%eax
   40c99:	8d 50 fe             	lea    -0x2(%eax),%edx
   40c9c:	8b 45 fc             	mov    -0x4(%ebp),%eax
   40c9f:	89 50 10             	mov    %edx,0x10(%eax)
   40ca2:	8b 45 fc             	mov    -0x4(%ebp),%eax
   40ca5:	8b 50 08             	mov    0x8(%eax),%edx
   40ca8:	8b 45 f4             	mov    -0xc(%ebp),%eax
   40cab:	01 c2                	add    %eax,%edx
   40cad:	8b 45 fc             	mov    -0x4(%ebp),%eax
   40cb0:	89 50 08             	mov    %edx,0x8(%eax)
   40cb3:	8b 45 fc             	mov    -0x4(%ebp),%eax
   40cb6:	8b 40 0c             	mov    0xc(%eax),%eax
   40cb9:	0f af 45 f8          	imul   -0x8(%ebp),%eax
   40cbd:	89 c2                	mov    %eax,%edx
   40cbf:	8b 45 fc             	mov    -0x4(%ebp),%eax
   40cc2:	8b 40 14             	mov    0x14(%eax),%eax
   40cc5:	01 d0                	add    %edx,%eax
   40cc7:	eb 38                	jmp    40d01 <k_heapBMAllocBound+0x21f>
   40cc9:	8b 55 f4             	mov    -0xc(%ebp),%edx
   40ccc:	8b 45 f8             	mov    -0x8(%ebp),%eax
   40ccf:	01 d0                	add    %edx,%eax
   40cd1:	48                   	dec    %eax
   40cd2:	89 45 f8             	mov    %eax,-0x8(%ebp)
   40cd5:	eb 01                	jmp    40cd8 <k_heapBMAllocBound+0x1f6>
   40cd7:	90                   	nop
   40cd8:	ff 45 f8             	incl   -0x8(%ebp)
   40cdb:	8b 45 fc             	mov    -0x4(%ebp),%eax
   40cde:	8b 40 10             	mov    0x10(%eax),%eax
   40ce1:	39 45 f8             	cmp    %eax,-0x8(%ebp)
   40ce4:	0f 85 c7 fe ff ff    	jne    40bb1 <k_heapBMAllocBound+0xcf>
   40cea:	8b 45 fc             	mov    -0x4(%ebp),%eax
   40ced:	8b 00                	mov    (%eax),%eax
   40cef:	89 45 fc             	mov    %eax,-0x4(%ebp)
   40cf2:	83 7d fc 00          	cmpl   $0x0,-0x4(%ebp)
   40cf6:	0f 85 0c fe ff ff    	jne    40b08 <k_heapBMAllocBound+0x26>
   40cfc:	b8 00 00 00 00       	mov    $0x0,%eax
   40d01:	89 ec                	mov    %ebp,%esp
   40d03:	5d                   	pop    %ebp
   40d04:	c3                   	ret    

00040d05 <k_heapBMSet>:
   40d05:	55                   	push   %ebp
   40d06:	89 e5                	mov    %esp,%ebp
   40d08:	83 ec 24             	sub    $0x24,%esp
   40d0b:	8b 45 14             	mov    0x14(%ebp),%eax
   40d0e:	88 45 dc             	mov    %al,-0x24(%ebp)
   40d11:	8b 45 08             	mov    0x8(%ebp),%eax
   40d14:	8b 00                	mov    (%eax),%eax
   40d16:	89 45 fc             	mov    %eax,-0x4(%ebp)
   40d19:	e9 8f 01 00 00       	jmp    40ead <k_heapBMSet+0x1a8>
   40d1e:	8b 45 fc             	mov    -0x4(%ebp),%eax
   40d21:	8b 40 14             	mov    0x14(%eax),%eax
   40d24:	39 45 0c             	cmp    %eax,0xc(%ebp)
   40d27:	72 13                	jb     40d3c <k_heapBMSet+0x37>
   40d29:	8b 45 fc             	mov    -0x4(%ebp),%eax
   40d2c:	8b 50 14             	mov    0x14(%eax),%edx
   40d2f:	8b 45 fc             	mov    -0x4(%ebp),%eax
   40d32:	8b 40 04             	mov    0x4(%eax),%eax
   40d35:	01 d0                	add    %edx,%eax
   40d37:	39 45 0c             	cmp    %eax,0xc(%ebp)
   40d3a:	72 59                	jb     40d95 <k_heapBMSet+0x90>
   40d3c:	8b 55 0c             	mov    0xc(%ebp),%edx
   40d3f:	8b 45 10             	mov    0x10(%ebp),%eax
   40d42:	01 c2                	add    %eax,%edx
   40d44:	8b 45 fc             	mov    -0x4(%ebp),%eax
   40d47:	8b 40 14             	mov    0x14(%eax),%eax
   40d4a:	39 c2                	cmp    %eax,%edx
   40d4c:	72 1a                	jb     40d68 <k_heapBMSet+0x63>
   40d4e:	8b 55 0c             	mov    0xc(%ebp),%edx
   40d51:	8b 45 10             	mov    0x10(%ebp),%eax
   40d54:	01 c2                	add    %eax,%edx
   40d56:	8b 45 fc             	mov    -0x4(%ebp),%eax
   40d59:	8b 48 14             	mov    0x14(%eax),%ecx
   40d5c:	8b 45 fc             	mov    -0x4(%ebp),%eax
   40d5f:	8b 40 04             	mov    0x4(%eax),%eax
   40d62:	01 c8                	add    %ecx,%eax
   40d64:	39 c2                	cmp    %eax,%edx
   40d66:	72 2d                	jb     40d95 <k_heapBMSet+0x90>
   40d68:	8b 45 fc             	mov    -0x4(%ebp),%eax
   40d6b:	8b 40 14             	mov    0x14(%eax),%eax
   40d6e:	39 45 0c             	cmp    %eax,0xc(%ebp)
   40d71:	0f 83 2e 01 00 00    	jae    40ea5 <k_heapBMSet+0x1a0>
   40d77:	8b 55 0c             	mov    0xc(%ebp),%edx
   40d7a:	8b 45 10             	mov    0x10(%ebp),%eax
   40d7d:	01 c2                	add    %eax,%edx
   40d7f:	8b 45 fc             	mov    -0x4(%ebp),%eax
   40d82:	8b 48 14             	mov    0x14(%eax),%ecx
   40d85:	8b 45 fc             	mov    -0x4(%ebp),%eax
   40d88:	8b 40 04             	mov    0x4(%eax),%eax
   40d8b:	01 c8                	add    %ecx,%eax
   40d8d:	39 c2                	cmp    %eax,%edx
   40d8f:	0f 86 10 01 00 00    	jbe    40ea5 <k_heapBMSet+0x1a0>
   40d95:	8b 45 fc             	mov    -0x4(%ebp),%eax
   40d98:	8b 40 14             	mov    0x14(%eax),%eax
   40d9b:	39 45 0c             	cmp    %eax,0xc(%ebp)
   40d9e:	72 23                	jb     40dc3 <k_heapBMSet+0xbe>
   40da0:	8b 45 fc             	mov    -0x4(%ebp),%eax
   40da3:	8b 50 14             	mov    0x14(%eax),%edx
   40da6:	8b 45 0c             	mov    0xc(%ebp),%eax
   40da9:	29 d0                	sub    %edx,%eax
   40dab:	89 45 f0             	mov    %eax,-0x10(%ebp)
   40dae:	8b 45 fc             	mov    -0x4(%ebp),%eax
   40db1:	8b 48 0c             	mov    0xc(%eax),%ecx
   40db4:	8b 45 f0             	mov    -0x10(%ebp),%eax
   40db7:	ba 00 00 00 00       	mov    $0x0,%edx
   40dbc:	f7 f1                	div    %ecx
   40dbe:	89 45 f8             	mov    %eax,-0x8(%ebp)
   40dc1:	eb 07                	jmp    40dca <k_heapBMSet+0xc5>
   40dc3:	c7 45 f8 00 00 00 00 	movl   $0x0,-0x8(%ebp)
   40dca:	8b 45 fc             	mov    -0x4(%ebp),%eax
   40dcd:	8b 40 18             	mov    0x18(%eax),%eax
   40dd0:	89 45 ec             	mov    %eax,-0x14(%ebp)
   40dd3:	8b 45 10             	mov    0x10(%ebp),%eax
   40dd6:	01 45 0c             	add    %eax,0xc(%ebp)
   40dd9:	8b 45 fc             	mov    -0x4(%ebp),%eax
   40ddc:	8b 50 14             	mov    0x14(%eax),%edx
   40ddf:	8b 45 0c             	mov    0xc(%ebp),%eax
   40de2:	29 d0                	sub    %edx,%eax
   40de4:	89 45 e8             	mov    %eax,-0x18(%ebp)
   40de7:	8b 45 fc             	mov    -0x4(%ebp),%eax
   40dea:	8b 48 0c             	mov    0xc(%eax),%ecx
   40ded:	8b 45 e8             	mov    -0x18(%ebp),%eax
   40df0:	ba 00 00 00 00       	mov    $0x0,%edx
   40df5:	f7 f1                	div    %ecx
   40df7:	89 c2                	mov    %eax,%edx
   40df9:	8b 45 fc             	mov    -0x4(%ebp),%eax
   40dfc:	8b 40 0c             	mov    0xc(%eax),%eax
   40dff:	0f af c2             	imul   %edx,%eax
   40e02:	39 45 e8             	cmp    %eax,-0x18(%ebp)
   40e05:	76 13                	jbe    40e1a <k_heapBMSet+0x115>
   40e07:	8b 45 fc             	mov    -0x4(%ebp),%eax
   40e0a:	8b 48 0c             	mov    0xc(%eax),%ecx
   40e0d:	8b 45 e8             	mov    -0x18(%ebp),%eax
   40e10:	ba 00 00 00 00       	mov    $0x0,%edx
   40e15:	f7 f1                	div    %ecx
   40e17:	40                   	inc    %eax
   40e18:	eb 10                	jmp    40e2a <k_heapBMSet+0x125>
   40e1a:	8b 45 fc             	mov    -0x4(%ebp),%eax
   40e1d:	8b 48 0c             	mov    0xc(%eax),%ecx
   40e20:	8b 45 e8             	mov    -0x18(%ebp),%eax
   40e23:	ba 00 00 00 00       	mov    $0x0,%edx
   40e28:	f7 f1                	div    %ecx
   40e2a:	89 45 e4             	mov    %eax,-0x1c(%ebp)
   40e2d:	ff 45 e4             	incl   -0x1c(%ebp)
   40e30:	8b 45 fc             	mov    -0x4(%ebp),%eax
   40e33:	8b 40 04             	mov    0x4(%eax),%eax
   40e36:	8b 55 fc             	mov    -0x4(%ebp),%edx
   40e39:	8b 4a 0c             	mov    0xc(%edx),%ecx
   40e3c:	ba 00 00 00 00       	mov    $0x0,%edx
   40e41:	f7 f1                	div    %ecx
   40e43:	89 45 e0             	mov    %eax,-0x20(%ebp)
   40e46:	8b 55 e0             	mov    -0x20(%ebp),%edx
   40e49:	8b 45 e4             	mov    -0x1c(%ebp),%eax
   40e4c:	39 c2                	cmp    %eax,%edx
   40e4e:	0f 46 c2             	cmovbe %edx,%eax
   40e51:	89 45 e0             	mov    %eax,-0x20(%ebp)
   40e54:	8b 45 f8             	mov    -0x8(%ebp),%eax
   40e57:	89 45 f4             	mov    %eax,-0xc(%ebp)
   40e5a:	eb 11                	jmp    40e6d <k_heapBMSet+0x168>
   40e5c:	8b 55 ec             	mov    -0x14(%ebp),%edx
   40e5f:	8b 45 f4             	mov    -0xc(%ebp),%eax
   40e62:	01 d0                	add    %edx,%eax
   40e64:	0f b6 55 dc          	movzbl -0x24(%ebp),%edx
   40e68:	88 10                	mov    %dl,(%eax)
   40e6a:	ff 45 f4             	incl   -0xc(%ebp)
   40e6d:	8b 45 f4             	mov    -0xc(%ebp),%eax
   40e70:	3b 45 e0             	cmp    -0x20(%ebp),%eax
   40e73:	72 e7                	jb     40e5c <k_heapBMSet+0x157>
   40e75:	80 7d dc 00          	cmpb   $0x0,-0x24(%ebp)
   40e79:	75 16                	jne    40e91 <k_heapBMSet+0x18c>
   40e7b:	8b 45 fc             	mov    -0x4(%ebp),%eax
   40e7e:	8b 50 08             	mov    0x8(%eax),%edx
   40e81:	8b 45 f8             	mov    -0x8(%ebp),%eax
   40e84:	2b 45 e4             	sub    -0x1c(%ebp),%eax
   40e87:	01 c2                	add    %eax,%edx
   40e89:	8b 45 fc             	mov    -0x4(%ebp),%eax
   40e8c:	89 50 08             	mov    %edx,0x8(%eax)
   40e8f:	eb 14                	jmp    40ea5 <k_heapBMSet+0x1a0>
   40e91:	8b 45 fc             	mov    -0x4(%ebp),%eax
   40e94:	8b 50 08             	mov    0x8(%eax),%edx
   40e97:	8b 45 e4             	mov    -0x1c(%ebp),%eax
   40e9a:	2b 45 f8             	sub    -0x8(%ebp),%eax
   40e9d:	01 c2                	add    %eax,%edx
   40e9f:	8b 45 fc             	mov    -0x4(%ebp),%eax
   40ea2:	89 50 08             	mov    %edx,0x8(%eax)
   40ea5:	8b 45 fc             	mov    -0x4(%ebp),%eax
   40ea8:	8b 00                	mov    (%eax),%eax
   40eaa:	89 45 fc             	mov    %eax,-0x4(%ebp)
   40ead:	83 7d fc 00          	cmpl   $0x0,-0x4(%ebp)
   40eb1:	0f 85 67 fe ff ff    	jne    40d1e <k_heapBMSet+0x19>
   40eb7:	90                   	nop
   40eb8:	89 ec                	mov    %ebp,%esp
   40eba:	5d                   	pop    %ebp
   40ebb:	c3                   	ret    

00040ebc <k_heapBMFree>:
   40ebc:	55                   	push   %ebp
   40ebd:	89 e5                	mov    %esp,%ebp
   40ebf:	83 ec 20             	sub    $0x20,%esp
   40ec2:	8b 45 08             	mov    0x8(%ebp),%eax
   40ec5:	8b 00                	mov    (%eax),%eax
   40ec7:	89 45 fc             	mov    %eax,-0x4(%ebp)
   40eca:	e9 c6 00 00 00       	jmp    40f95 <k_heapBMFree+0xd9>
   40ecf:	8b 45 fc             	mov    -0x4(%ebp),%eax
   40ed2:	8b 50 14             	mov    0x14(%eax),%edx
   40ed5:	8b 45 0c             	mov    0xc(%ebp),%eax
   40ed8:	39 c2                	cmp    %eax,%edx
   40eda:	0f 83 ad 00 00 00    	jae    40f8d <k_heapBMFree+0xd1>
   40ee0:	8b 45 fc             	mov    -0x4(%ebp),%eax
   40ee3:	8b 50 14             	mov    0x14(%eax),%edx
   40ee6:	8b 45 fc             	mov    -0x4(%ebp),%eax
   40ee9:	8b 40 04             	mov    0x4(%eax),%eax
   40eec:	01 c2                	add    %eax,%edx
   40eee:	8b 45 0c             	mov    0xc(%ebp),%eax
   40ef1:	39 c2                	cmp    %eax,%edx
   40ef3:	0f 86 94 00 00 00    	jbe    40f8d <k_heapBMFree+0xd1>
   40ef9:	8b 55 0c             	mov    0xc(%ebp),%edx
   40efc:	8b 45 fc             	mov    -0x4(%ebp),%eax
   40eff:	8b 48 14             	mov    0x14(%eax),%ecx
   40f02:	89 d0                	mov    %edx,%eax
   40f04:	29 c8                	sub    %ecx,%eax
   40f06:	89 45 f4             	mov    %eax,-0xc(%ebp)
   40f09:	8b 45 fc             	mov    -0x4(%ebp),%eax
   40f0c:	8b 48 0c             	mov    0xc(%eax),%ecx
   40f0f:	8b 45 f4             	mov    -0xc(%ebp),%eax
   40f12:	ba 00 00 00 00       	mov    $0x0,%edx
   40f17:	f7 f1                	div    %ecx
   40f19:	89 45 f0             	mov    %eax,-0x10(%ebp)
   40f1c:	8b 45 fc             	mov    -0x4(%ebp),%eax
   40f1f:	8b 40 18             	mov    0x18(%eax),%eax
   40f22:	89 45 ec             	mov    %eax,-0x14(%ebp)
   40f25:	8b 55 ec             	mov    -0x14(%ebp),%edx
   40f28:	8b 45 f0             	mov    -0x10(%ebp),%eax
   40f2b:	01 d0                	add    %edx,%eax
   40f2d:	0f b6 00             	movzbl (%eax),%eax
   40f30:	88 45 eb             	mov    %al,-0x15(%ebp)
   40f33:	8b 45 fc             	mov    -0x4(%ebp),%eax
   40f36:	8b 40 04             	mov    0x4(%eax),%eax
   40f39:	8b 55 fc             	mov    -0x4(%ebp),%edx
   40f3c:	8b 4a 0c             	mov    0xc(%edx),%ecx
   40f3f:	ba 00 00 00 00       	mov    $0x0,%edx
   40f44:	f7 f1                	div    %ecx
   40f46:	89 45 e4             	mov    %eax,-0x1c(%ebp)
   40f49:	8b 45 f0             	mov    -0x10(%ebp),%eax
   40f4c:	89 45 f8             	mov    %eax,-0x8(%ebp)
   40f4f:	eb 0e                	jmp    40f5f <k_heapBMFree+0xa3>
   40f51:	8b 55 ec             	mov    -0x14(%ebp),%edx
   40f54:	8b 45 f8             	mov    -0x8(%ebp),%eax
   40f57:	01 d0                	add    %edx,%eax
   40f59:	c6 00 00             	movb   $0x0,(%eax)
   40f5c:	ff 45 f8             	incl   -0x8(%ebp)
   40f5f:	8b 55 ec             	mov    -0x14(%ebp),%edx
   40f62:	8b 45 f8             	mov    -0x8(%ebp),%eax
   40f65:	01 d0                	add    %edx,%eax
   40f67:	0f b6 00             	movzbl (%eax),%eax
   40f6a:	38 45 eb             	cmp    %al,-0x15(%ebp)
   40f6d:	75 08                	jne    40f77 <k_heapBMFree+0xbb>
   40f6f:	8b 45 f8             	mov    -0x8(%ebp),%eax
   40f72:	3b 45 e4             	cmp    -0x1c(%ebp),%eax
   40f75:	72 da                	jb     40f51 <k_heapBMFree+0x95>
   40f77:	8b 45 fc             	mov    -0x4(%ebp),%eax
   40f7a:	8b 50 08             	mov    0x8(%eax),%edx
   40f7d:	8b 45 f0             	mov    -0x10(%ebp),%eax
   40f80:	2b 45 f8             	sub    -0x8(%ebp),%eax
   40f83:	01 c2                	add    %eax,%edx
   40f85:	8b 45 fc             	mov    -0x4(%ebp),%eax
   40f88:	89 50 08             	mov    %edx,0x8(%eax)
   40f8b:	eb 13                	jmp    40fa0 <k_heapBMFree+0xe4>
   40f8d:	8b 45 fc             	mov    -0x4(%ebp),%eax
   40f90:	8b 00                	mov    (%eax),%eax
   40f92:	89 45 fc             	mov    %eax,-0x4(%ebp)
   40f95:	83 7d fc 00          	cmpl   $0x0,-0x4(%ebp)
   40f99:	0f 85 30 ff ff ff    	jne    40ecf <k_heapBMFree+0x13>
   40f9f:	90                   	nop
   40fa0:	89 ec                	mov    %ebp,%esp
   40fa2:	5d                   	pop    %ebp
   40fa3:	c3                   	ret    

00040fa4 <khamalloc>:
   40fa4:	55                   	push   %ebp
   40fa5:	89 e5                	mov    %esp,%ebp
   40fa7:	83 ec 28             	sub    $0x28,%esp
   40faa:	c7 44 24 08 0c 00 00 	movl   $0xc,0x8(%esp)
   40fb1:	00 
   40fb2:	8b 45 08             	mov    0x8(%ebp),%eax
   40fb5:	89 44 24 04          	mov    %eax,0x4(%esp)
   40fb9:	c7 04 24 fc c1 04 00 	movl   $0x4c1fc,(%esp)
   40fc0:	e8 1d fb ff ff       	call   40ae2 <k_heapBMAllocBound>
   40fc5:	89 45 f4             	mov    %eax,-0xc(%ebp)
   40fc8:	83 7d f4 00          	cmpl   $0x0,-0xc(%ebp)
   40fcc:	75 1c                	jne    40fea <khamalloc+0x46>
   40fce:	c7 44 24 08 3a d0 04 	movl   $0x4d03a,0x8(%esp)
   40fd5:	00 
   40fd6:	c7 44 24 04 ef 00 00 	movl   $0xef,0x4(%esp)
   40fdd:	00 
   40fde:	c7 04 24 50 d0 04 00 	movl   $0x4d050,(%esp)
   40fe5:	e8 af 0c 00 00       	call   41c99 <__internal_panic>
   40fea:	8b 45 f4             	mov    -0xc(%ebp),%eax
   40fed:	89 ec                	mov    %ebp,%esp
   40fef:	5d                   	pop    %ebp
   40ff0:	c3                   	ret    

00040ff1 <khmalloc>:
   40ff1:	55                   	push   %ebp
   40ff2:	89 e5                	mov    %esp,%ebp
   40ff4:	83 ec 28             	sub    $0x28,%esp
   40ff7:	8b 45 08             	mov    0x8(%ebp),%eax
   40ffa:	89 44 24 04          	mov    %eax,0x4(%esp)
   40ffe:	c7 04 24 fc c1 04 00 	movl   $0x4c1fc,(%esp)
   41005:	e8 b4 fa ff ff       	call   40abe <k_heapBMAlloc>
   4100a:	89 45 f4             	mov    %eax,-0xc(%ebp)
   4100d:	83 7d f4 00          	cmpl   $0x0,-0xc(%ebp)
   41011:	75 1c                	jne    4102f <khmalloc+0x3e>
   41013:	c7 44 24 08 5b d0 04 	movl   $0x4d05b,0x8(%esp)
   4101a:	00 
   4101b:	c7 44 24 04 f7 00 00 	movl   $0xf7,0x4(%esp)
   41022:	00 
   41023:	c7 04 24 50 d0 04 00 	movl   $0x4d050,(%esp)
   4102a:	e8 6a 0c 00 00       	call   41c99 <__internal_panic>
   4102f:	8b 45 f4             	mov    -0xc(%ebp),%eax
   41032:	89 ec                	mov    %ebp,%esp
   41034:	5d                   	pop    %ebp
   41035:	c3                   	ret    

00041036 <khfree>:
   41036:	55                   	push   %ebp
   41037:	89 e5                	mov    %esp,%ebp
   41039:	83 ec 08             	sub    $0x8,%esp
   4103c:	8b 45 08             	mov    0x8(%ebp),%eax
   4103f:	89 44 24 04          	mov    %eax,0x4(%esp)
   41043:	c7 04 24 fc c1 04 00 	movl   $0x4c1fc,(%esp)
   4104a:	e8 6d fe ff ff       	call   40ebc <k_heapBMFree>
   4104f:	90                   	nop
   41050:	89 ec                	mov    %ebp,%esp
   41052:	5d                   	pop    %ebp
   41053:	c3                   	ret    

00041054 <khrealloc>:
   41054:	55                   	push   %ebp
   41055:	89 e5                	mov    %esp,%ebp
   41057:	83 ec 28             	sub    $0x28,%esp
   4105a:	8b 45 0c             	mov    0xc(%ebp),%eax
   4105d:	89 04 24             	mov    %eax,(%esp)
   41060:	e8 8c ff ff ff       	call   40ff1 <khmalloc>
   41065:	89 45 f4             	mov    %eax,-0xc(%ebp)
   41068:	8b 45 0c             	mov    0xc(%ebp),%eax
   4106b:	89 44 24 08          	mov    %eax,0x8(%esp)
   4106f:	8b 45 f4             	mov    -0xc(%ebp),%eax
   41072:	89 44 24 04          	mov    %eax,0x4(%esp)
   41076:	8b 45 08             	mov    0x8(%ebp),%eax
   41079:	89 04 24             	mov    %eax,(%esp)
   4107c:	e8 d0 0c 00 00       	call   41d51 <memcpy>
   41081:	8b 45 08             	mov    0x8(%ebp),%eax
   41084:	89 04 24             	mov    %eax,(%esp)
   41087:	e8 aa ff ff ff       	call   41036 <khfree>
   4108c:	8b 45 f4             	mov    -0xc(%ebp),%eax
   4108f:	89 ec                	mov    %ebp,%esp
   41091:	5d                   	pop    %ebp
   41092:	c3                   	ret    

00041093 <kharealloc>:
   41093:	55                   	push   %ebp
   41094:	89 e5                	mov    %esp,%ebp
   41096:	83 ec 28             	sub    $0x28,%esp
   41099:	8b 45 0c             	mov    0xc(%ebp),%eax
   4109c:	89 04 24             	mov    %eax,(%esp)
   4109f:	e8 00 ff ff ff       	call   40fa4 <khamalloc>
   410a4:	89 45 f4             	mov    %eax,-0xc(%ebp)
   410a7:	8b 45 0c             	mov    0xc(%ebp),%eax
   410aa:	89 44 24 08          	mov    %eax,0x8(%esp)
   410ae:	8b 45 f4             	mov    -0xc(%ebp),%eax
   410b1:	89 44 24 04          	mov    %eax,0x4(%esp)
   410b5:	8b 45 08             	mov    0x8(%ebp),%eax
   410b8:	89 04 24             	mov    %eax,(%esp)
   410bb:	e8 91 0c 00 00       	call   41d51 <memcpy>
   410c0:	8b 45 08             	mov    0x8(%ebp),%eax
   410c3:	89 04 24             	mov    %eax,(%esp)
   410c6:	e8 6b ff ff ff       	call   41036 <khfree>
   410cb:	8b 45 f4             	mov    -0xc(%ebp),%eax
   410ce:	89 ec                	mov    %ebp,%esp
   410d0:	5d                   	pop    %ebp
   410d1:	c3                   	ret    

000410d2 <init_heap>:
   410d2:	55                   	push   %ebp
   410d3:	89 e5                	mov    %esp,%ebp
   410d5:	83 ec 18             	sub    $0x18,%esp
   410d8:	c7 04 24 fc c1 04 00 	movl   $0x4c1fc,(%esp)
   410df:	e8 4b f8 ff ff       	call   4092f <k_heapBMInit>
   410e4:	b9 00 00 05 00       	mov    $0x50000,%ecx
   410e9:	b8 00 00 80 00       	mov    $0x800000,%eax
   410ee:	29 c8                	sub    %ecx,%eax
   410f0:	89 c2                	mov    %eax,%edx
   410f2:	b8 00 00 05 00       	mov    $0x50000,%eax
   410f7:	c7 44 24 0c 04 00 00 	movl   $0x4,0xc(%esp)
   410fe:	00 
   410ff:	89 54 24 08          	mov    %edx,0x8(%esp)
   41103:	89 44 24 04          	mov    %eax,0x4(%esp)
   41107:	c7 04 24 fc c1 04 00 	movl   $0x4c1fc,(%esp)
   4110e:	e8 2b f8 ff ff       	call   4093e <k_heapBMAddBlock>
   41113:	90                   	nop
   41114:	89 ec                	mov    %ebp,%esp
   41116:	5d                   	pop    %ebp
   41117:	c3                   	ret    

00041118 <set_idt_entry>:
   41118:	55                   	push   %ebp
   41119:	89 e5                	mov    %esp,%ebp
   4111b:	83 ec 08             	sub    $0x8,%esp
   4111e:	8b 45 10             	mov    0x10(%ebp),%eax
   41121:	8b 55 14             	mov    0x14(%ebp),%edx
   41124:	66 89 45 fc          	mov    %ax,-0x4(%ebp)
   41128:	88 d0                	mov    %dl,%al
   4112a:	88 45 f8             	mov    %al,-0x8(%ebp)
   4112d:	8b 45 0c             	mov    0xc(%ebp),%eax
   41130:	0f b7 d0             	movzwl %ax,%edx
   41133:	8b 45 08             	mov    0x8(%ebp),%eax
   41136:	66 89 14 c5 20 c2 04 	mov    %dx,0x4c220(,%eax,8)
   4113d:	00 
   4113e:	8b 45 08             	mov    0x8(%ebp),%eax
   41141:	8b 55 fc             	mov    -0x4(%ebp),%edx
   41144:	66 89 14 c5 22 c2 04 	mov    %dx,0x4c222(,%eax,8)
   4114b:	00 
   4114c:	8b 45 08             	mov    0x8(%ebp),%eax
   4114f:	0f b6 55 f8          	movzbl -0x8(%ebp),%edx
   41153:	88 14 c5 25 c2 04 00 	mov    %dl,0x4c225(,%eax,8)
   4115a:	8b 45 0c             	mov    0xc(%ebp),%eax
   4115d:	c1 e8 10             	shr    $0x10,%eax
   41160:	0f b7 d0             	movzwl %ax,%edx
   41163:	8b 45 08             	mov    0x8(%ebp),%eax
   41166:	66 89 14 c5 26 c2 04 	mov    %dx,0x4c226(,%eax,8)
   4116d:	00 
   4116e:	90                   	nop
   4116f:	89 ec                	mov    %ebp,%esp
   41171:	5d                   	pop    %ebp
   41172:	c3                   	ret    

00041173 <init_idt>:
   41173:	55                   	push   %ebp
   41174:	89 e5                	mov    %esp,%ebp
   41176:	83 ec 28             	sub    $0x28,%esp
   41179:	b8 20 c2 04 00       	mov    $0x4c220,%eax
   4117e:	a3 02 c2 04 00       	mov    %eax,0x4c202
   41183:	66 c7 05 00 c2 04 00 	movw   $0x407,0x4c200
   4118a:	07 04 
   4118c:	c7 04 24 70 d0 04 00 	movl   $0x4d070,(%esp)
   41193:	e8 48 1b 00 00       	call   42ce0 <putstring>
   41198:	c7 45 f4 00 00 00 00 	movl   $0x0,-0xc(%ebp)
   4119f:	eb 26                	jmp    411c7 <init_idt+0x54>
   411a1:	8b 45 f4             	mov    -0xc(%ebp),%eax
   411a4:	c7 44 24 0c 8e 00 00 	movl   $0x8e,0xc(%esp)
   411ab:	00 
   411ac:	c7 44 24 08 08 00 00 	movl   $0x8,0x8(%esp)
   411b3:	00 
   411b4:	c7 44 24 04 e7 01 04 	movl   $0x401e7,0x4(%esp)
   411bb:	00 
   411bc:	89 04 24             	mov    %eax,(%esp)
   411bf:	e8 54 ff ff ff       	call   41118 <set_idt_entry>
   411c4:	ff 45 f4             	incl   -0xc(%ebp)
   411c7:	81 7d f4 80 00 00 00 	cmpl   $0x80,-0xc(%ebp)
   411ce:	7e d1                	jle    411a1 <init_idt+0x2e>
   411d0:	c7 45 f0 20 00 00 00 	movl   $0x20,-0x10(%ebp)
   411d7:	eb 26                	jmp    411ff <init_idt+0x8c>
   411d9:	8b 45 f0             	mov    -0x10(%ebp),%eax
   411dc:	c7 44 24 0c 8e 00 00 	movl   $0x8e,0xc(%esp)
   411e3:	00 
   411e4:	c7 44 24 08 08 00 00 	movl   $0x8,0x8(%esp)
   411eb:	00 
   411ec:	c7 44 24 04 e8 01 04 	movl   $0x401e8,0x4(%esp)
   411f3:	00 
   411f4:	89 04 24             	mov    %eax,(%esp)
   411f7:	e8 1c ff ff ff       	call   41118 <set_idt_entry>
   411fc:	ff 45 f0             	incl   -0x10(%ebp)
   411ff:	83 7d f0 2f          	cmpl   $0x2f,-0x10(%ebp)
   41203:	7e d4                	jle    411d9 <init_idt+0x66>
   41205:	c7 44 24 0c 8e 00 00 	movl   $0x8e,0xc(%esp)
   4120c:	00 
   4120d:	c7 44 24 08 08 00 00 	movl   $0x8,0x8(%esp)
   41214:	00 
   41215:	c7 44 24 04 b4 00 04 	movl   $0x400b4,0x4(%esp)
   4121c:	00 
   4121d:	c7 04 24 20 00 00 00 	movl   $0x20,(%esp)
   41224:	e8 ef fe ff ff       	call   41118 <set_idt_entry>
   41229:	c7 44 24 0c 8e 00 00 	movl   $0x8e,0xc(%esp)
   41230:	00 
   41231:	c7 44 24 08 08 00 00 	movl   $0x8,0x8(%esp)
   41238:	00 
   41239:	c7 44 24 04 cb 01 04 	movl   $0x401cb,0x4(%esp)
   41240:	00 
   41241:	c7 04 24 21 00 00 00 	movl   $0x21,(%esp)
   41248:	e8 cb fe ff ff       	call   41118 <set_idt_entry>
   4124d:	c7 44 24 0c 8e 00 00 	movl   $0x8e,0xc(%esp)
   41254:	00 
   41255:	c7 44 24 08 08 00 00 	movl   $0x8,0x8(%esp)
   4125c:	00 
   4125d:	c7 44 24 04 98 00 04 	movl   $0x40098,0x4(%esp)
   41264:	00 
   41265:	c7 04 24 60 00 00 00 	movl   $0x60,(%esp)
   4126c:	e8 a7 fe ff ff       	call   41118 <set_idt_entry>
   41271:	c7 44 24 0c 8e 00 00 	movl   $0x8e,0xc(%esp)
   41278:	00 
   41279:	c7 44 24 08 08 00 00 	movl   $0x8,0x8(%esp)
   41280:	00 
   41281:	c7 44 24 04 87 03 04 	movl   $0x40387,0x4(%esp)
   41288:	00 
   41289:	c7 04 24 2e 00 00 00 	movl   $0x2e,(%esp)
   41290:	e8 83 fe ff ff       	call   41118 <set_idt_entry>
   41295:	c7 44 24 0c 8e 00 00 	movl   $0x8e,0xc(%esp)
   4129c:	00 
   4129d:	c7 44 24 08 08 00 00 	movl   $0x8,0x8(%esp)
   412a4:	00 
   412a5:	c7 44 24 04 87 03 04 	movl   $0x40387,0x4(%esp)
   412ac:	00 
   412ad:	c7 04 24 2f 00 00 00 	movl   $0x2f,(%esp)
   412b4:	e8 5f fe ff ff       	call   41118 <set_idt_entry>
   412b9:	c7 44 24 0c 8e 00 00 	movl   $0x8e,0xc(%esp)
   412c0:	00 
   412c1:	c7 44 24 08 08 00 00 	movl   $0x8,0x8(%esp)
   412c8:	00 
   412c9:	c7 44 24 04 f9 01 04 	movl   $0x401f9,0x4(%esp)
   412d0:	00 
   412d1:	c7 04 24 00 00 00 00 	movl   $0x0,(%esp)
   412d8:	e8 3b fe ff ff       	call   41118 <set_idt_entry>
   412dd:	c7 44 24 0c 8e 00 00 	movl   $0x8e,0xc(%esp)
   412e4:	00 
   412e5:	c7 44 24 08 08 00 00 	movl   $0x8,0x8(%esp)
   412ec:	00 
   412ed:	c7 44 24 04 06 02 04 	movl   $0x40206,0x4(%esp)
   412f4:	00 
   412f5:	c7 04 24 02 00 00 00 	movl   $0x2,(%esp)
   412fc:	e8 17 fe ff ff       	call   41118 <set_idt_entry>
   41301:	c7 44 24 0c 8e 00 00 	movl   $0x8e,0xc(%esp)
   41308:	00 
   41309:	c7 44 24 08 08 00 00 	movl   $0x8,0x8(%esp)
   41310:	00 
   41311:	c7 44 24 04 13 02 04 	movl   $0x40213,0x4(%esp)
   41318:	00 
   41319:	c7 04 24 03 00 00 00 	movl   $0x3,(%esp)
   41320:	e8 f3 fd ff ff       	call   41118 <set_idt_entry>
   41325:	c7 44 24 0c 8e 00 00 	movl   $0x8e,0xc(%esp)
   4132c:	00 
   4132d:	c7 44 24 08 08 00 00 	movl   $0x8,0x8(%esp)
   41334:	00 
   41335:	c7 44 24 04 20 02 04 	movl   $0x40220,0x4(%esp)
   4133c:	00 
   4133d:	c7 04 24 04 00 00 00 	movl   $0x4,(%esp)
   41344:	e8 cf fd ff ff       	call   41118 <set_idt_entry>
   41349:	c7 44 24 0c 8e 00 00 	movl   $0x8e,0xc(%esp)
   41350:	00 
   41351:	c7 44 24 08 08 00 00 	movl   $0x8,0x8(%esp)
   41358:	00 
   41359:	c7 44 24 04 2d 02 04 	movl   $0x4022d,0x4(%esp)
   41360:	00 
   41361:	c7 04 24 05 00 00 00 	movl   $0x5,(%esp)
   41368:	e8 ab fd ff ff       	call   41118 <set_idt_entry>
   4136d:	c7 44 24 0c 8e 00 00 	movl   $0x8e,0xc(%esp)
   41374:	00 
   41375:	c7 44 24 08 08 00 00 	movl   $0x8,0x8(%esp)
   4137c:	00 
   4137d:	c7 44 24 04 3a 02 04 	movl   $0x4023a,0x4(%esp)
   41384:	00 
   41385:	c7 04 24 06 00 00 00 	movl   $0x6,(%esp)
   4138c:	e8 87 fd ff ff       	call   41118 <set_idt_entry>
   41391:	c7 44 24 0c 8e 00 00 	movl   $0x8e,0xc(%esp)
   41398:	00 
   41399:	c7 44 24 08 08 00 00 	movl   $0x8,0x8(%esp)
   413a0:	00 
   413a1:	c7 44 24 04 7f 02 04 	movl   $0x4027f,0x4(%esp)
   413a8:	00 
   413a9:	c7 04 24 07 00 00 00 	movl   $0x7,(%esp)
   413b0:	e8 63 fd ff ff       	call   41118 <set_idt_entry>
   413b5:	c7 44 24 0c 8e 00 00 	movl   $0x8e,0xc(%esp)
   413bc:	00 
   413bd:	c7 44 24 08 08 00 00 	movl   $0x8,0x8(%esp)
   413c4:	00 
   413c5:	c7 44 24 04 8c 02 04 	movl   $0x4028c,0x4(%esp)
   413cc:	00 
   413cd:	c7 04 24 08 00 00 00 	movl   $0x8,(%esp)
   413d4:	e8 3f fd ff ff       	call   41118 <set_idt_entry>
   413d9:	c7 44 24 0c 8e 00 00 	movl   $0x8e,0xc(%esp)
   413e0:	00 
   413e1:	c7 44 24 08 08 00 00 	movl   $0x8,0x8(%esp)
   413e8:	00 
   413e9:	c7 44 24 04 99 02 04 	movl   $0x40299,0x4(%esp)
   413f0:	00 
   413f1:	c7 04 24 0a 00 00 00 	movl   $0xa,(%esp)
   413f8:	e8 1b fd ff ff       	call   41118 <set_idt_entry>
   413fd:	c7 44 24 0c 8e 00 00 	movl   $0x8e,0xc(%esp)
   41404:	00 
   41405:	c7 44 24 08 08 00 00 	movl   $0x8,0x8(%esp)
   4140c:	00 
   4140d:	c7 44 24 04 a6 02 04 	movl   $0x402a6,0x4(%esp)
   41414:	00 
   41415:	c7 04 24 0b 00 00 00 	movl   $0xb,(%esp)
   4141c:	e8 f7 fc ff ff       	call   41118 <set_idt_entry>
   41421:	c7 44 24 0c 8e 00 00 	movl   $0x8e,0xc(%esp)
   41428:	00 
   41429:	c7 44 24 08 08 00 00 	movl   $0x8,0x8(%esp)
   41430:	00 
   41431:	c7 44 24 04 b3 02 04 	movl   $0x402b3,0x4(%esp)
   41438:	00 
   41439:	c7 04 24 0c 00 00 00 	movl   $0xc,(%esp)
   41440:	e8 d3 fc ff ff       	call   41118 <set_idt_entry>
   41445:	c7 44 24 0c 8e 00 00 	movl   $0x8e,0xc(%esp)
   4144c:	00 
   4144d:	c7 44 24 08 08 00 00 	movl   $0x8,0x8(%esp)
   41454:	00 
   41455:	c7 44 24 04 c0 02 04 	movl   $0x402c0,0x4(%esp)
   4145c:	00 
   4145d:	c7 04 24 0d 00 00 00 	movl   $0xd,(%esp)
   41464:	e8 af fc ff ff       	call   41118 <set_idt_entry>
   41469:	c7 44 24 0c 8e 00 00 	movl   $0x8e,0xc(%esp)
   41470:	00 
   41471:	c7 44 24 08 08 00 00 	movl   $0x8,0x8(%esp)
   41478:	00 
   41479:	c7 44 24 04 cd 02 04 	movl   $0x402cd,0x4(%esp)
   41480:	00 
   41481:	c7 04 24 0e 00 00 00 	movl   $0xe,(%esp)
   41488:	e8 8b fc ff ff       	call   41118 <set_idt_entry>
   4148d:	c7 44 24 0c 8e 00 00 	movl   $0x8e,0xc(%esp)
   41494:	00 
   41495:	c7 44 24 08 08 00 00 	movl   $0x8,0x8(%esp)
   4149c:	00 
   4149d:	c7 44 24 04 14 03 04 	movl   $0x40314,0x4(%esp)
   414a4:	00 
   414a5:	c7 04 24 11 00 00 00 	movl   $0x11,(%esp)
   414ac:	e8 67 fc ff ff       	call   41118 <set_idt_entry>
   414b1:	c7 44 24 0c 8e 00 00 	movl   $0x8e,0xc(%esp)
   414b8:	00 
   414b9:	c7 44 24 08 08 00 00 	movl   $0x8,0x8(%esp)
   414c0:	00 
   414c1:	c7 44 24 04 21 03 04 	movl   $0x40321,0x4(%esp)
   414c8:	00 
   414c9:	c7 04 24 12 00 00 00 	movl   $0x12,(%esp)
   414d0:	e8 43 fc ff ff       	call   41118 <set_idt_entry>
   414d5:	c7 44 24 0c 8e 00 00 	movl   $0x8e,0xc(%esp)
   414dc:	00 
   414dd:	c7 44 24 08 08 00 00 	movl   $0x8,0x8(%esp)
   414e4:	00 
   414e5:	c7 44 24 04 2e 03 04 	movl   $0x4032e,0x4(%esp)
   414ec:	00 
   414ed:	c7 04 24 13 00 00 00 	movl   $0x13,(%esp)
   414f4:	e8 1f fc ff ff       	call   41118 <set_idt_entry>
   414f9:	c7 44 24 0c 8e 00 00 	movl   $0x8e,0xc(%esp)
   41500:	00 
   41501:	c7 44 24 08 08 00 00 	movl   $0x8,0x8(%esp)
   41508:	00 
   41509:	c7 44 24 04 3b 03 04 	movl   $0x4033b,0x4(%esp)
   41510:	00 
   41511:	c7 04 24 14 00 00 00 	movl   $0x14,(%esp)
   41518:	e8 fb fb ff ff       	call   41118 <set_idt_entry>
   4151d:	c7 44 24 0c 8e 00 00 	movl   $0x8e,0xc(%esp)
   41524:	00 
   41525:	c7 44 24 08 08 00 00 	movl   $0x8,0x8(%esp)
   4152c:	00 
   4152d:	c7 44 24 04 48 03 04 	movl   $0x40348,0x4(%esp)
   41534:	00 
   41535:	c7 04 24 15 00 00 00 	movl   $0x15,(%esp)
   4153c:	e8 d7 fb ff ff       	call   41118 <set_idt_entry>
   41541:	c7 44 24 0c 8e 00 00 	movl   $0x8e,0xc(%esp)
   41548:	00 
   41549:	c7 44 24 08 08 00 00 	movl   $0x8,0x8(%esp)
   41550:	00 
   41551:	c7 44 24 04 55 03 04 	movl   $0x40355,0x4(%esp)
   41558:	00 
   41559:	c7 04 24 1c 00 00 00 	movl   $0x1c,(%esp)
   41560:	e8 b3 fb ff ff       	call   41118 <set_idt_entry>
   41565:	c7 44 24 0c 8e 00 00 	movl   $0x8e,0xc(%esp)
   4156c:	00 
   4156d:	c7 44 24 08 08 00 00 	movl   $0x8,0x8(%esp)
   41574:	00 
   41575:	c7 44 24 04 62 03 04 	movl   $0x40362,0x4(%esp)
   4157c:	00 
   4157d:	c7 04 24 1d 00 00 00 	movl   $0x1d,(%esp)
   41584:	e8 8f fb ff ff       	call   41118 <set_idt_entry>
   41589:	c7 44 24 0c 8e 00 00 	movl   $0x8e,0xc(%esp)
   41590:	00 
   41591:	c7 44 24 08 08 00 00 	movl   $0x8,0x8(%esp)
   41598:	00 
   41599:	c7 44 24 04 6f 03 04 	movl   $0x4036f,0x4(%esp)
   415a0:	00 
   415a1:	c7 04 24 1e 00 00 00 	movl   $0x1e,(%esp)
   415a8:	e8 6b fb ff ff       	call   41118 <set_idt_entry>
   415ad:	0f 01 1d 00 c2 04 00 	lidtl  0x4c200
   415b4:	fa                   	cli    
   415b5:	a1 50 80 04 00       	mov    0x48050,%eax
   415ba:	89 04 24             	mov    %eax,(%esp)
   415bd:	e8 1e 17 00 00       	call   42ce0 <putstring>
   415c2:	90                   	nop
   415c3:	89 ec                	mov    %ebp,%esp
   415c5:	5d                   	pop    %ebp
   415c6:	c3                   	ret    

000415c7 <initialize_crap>:
   415c7:	55                   	push   %ebp
   415c8:	89 e5                	mov    %esp,%ebp
   415ca:	83 ec 08             	sub    $0x8,%esp
   415cd:	e8 00 fb ff ff       	call   410d2 <init_heap>
   415d2:	e8 c0 1b 00 00       	call   43197 <init_vga>
   415d7:	e8 97 fb ff ff       	call   41173 <init_idt>
   415dc:	e8 08 45 00 00       	call   45ae9 <init_pic>
   415e1:	e8 9d 04 00 00       	call   41a83 <init_paging>
   415e6:	e8 cd 5a 00 00       	call   470b8 <init_vfs>
   415eb:	e8 f9 05 00 00       	call   41be9 <init_multitask>
   415f0:	e8 e6 43 00 00       	call   459db <init_pci>
   415f5:	e8 a4 3a 00 00       	call   4509e <init_ide>
   415fa:	e8 bb 54 00 00       	call   46aba <init_sata>
   415ff:	e8 bd 58 00 00       	call   46ec1 <init_mbr>
   41604:	e8 a6 58 00 00       	call   46eaf <init_fat>
   41609:	90                   	nop
   4160a:	89 ec                	mov    %ebp,%esp
   4160c:	5d                   	pop    %ebp
   4160d:	c3                   	ret    

0004160e <outb>:
   4160e:	55                   	push   %ebp
   4160f:	89 e5                	mov    %esp,%ebp
   41611:	83 ec 08             	sub    $0x8,%esp
   41614:	8b 45 08             	mov    0x8(%ebp),%eax
   41617:	8b 55 0c             	mov    0xc(%ebp),%edx
   4161a:	66 89 45 fc          	mov    %ax,-0x4(%ebp)
   4161e:	88 d0                	mov    %dl,%al
   41620:	88 45 f8             	mov    %al,-0x8(%ebp)
   41623:	0f b6 45 f8          	movzbl -0x8(%ebp),%eax
   41627:	8b 55 fc             	mov    -0x4(%ebp),%edx
   4162a:	ee                   	out    %al,(%dx)
   4162b:	90                   	nop
   4162c:	89 ec                	mov    %ebp,%esp
   4162e:	5d                   	pop    %ebp
   4162f:	c3                   	ret    

00041630 <inb>:
   41630:	55                   	push   %ebp
   41631:	89 e5                	mov    %esp,%ebp
   41633:	83 ec 14             	sub    $0x14,%esp
   41636:	8b 45 08             	mov    0x8(%ebp),%eax
   41639:	66 89 45 ec          	mov    %ax,-0x14(%ebp)
   4163d:	8b 45 ec             	mov    -0x14(%ebp),%eax
   41640:	89 c2                	mov    %eax,%edx
   41642:	ec                   	in     (%dx),%al
   41643:	88 45 ff             	mov    %al,-0x1(%ebp)
   41646:	0f b6 45 ff          	movzbl -0x1(%ebp),%eax
   4164a:	89 ec                	mov    %ebp,%esp
   4164c:	5d                   	pop    %ebp
   4164d:	c3                   	ret    

0004164e <outl>:
   4164e:	55                   	push   %ebp
   4164f:	89 e5                	mov    %esp,%ebp
   41651:	83 ec 04             	sub    $0x4,%esp
   41654:	8b 45 08             	mov    0x8(%ebp),%eax
   41657:	66 89 45 fc          	mov    %ax,-0x4(%ebp)
   4165b:	8b 45 0c             	mov    0xc(%ebp),%eax
   4165e:	8b 55 fc             	mov    -0x4(%ebp),%edx
   41661:	ef                   	out    %eax,(%dx)
   41662:	90                   	nop
   41663:	89 ec                	mov    %ebp,%esp
   41665:	5d                   	pop    %ebp
   41666:	c3                   	ret    

00041667 <inl>:
   41667:	55                   	push   %ebp
   41668:	89 e5                	mov    %esp,%ebp
   4166a:	83 ec 14             	sub    $0x14,%esp
   4166d:	8b 45 08             	mov    0x8(%ebp),%eax
   41670:	66 89 45 ec          	mov    %ax,-0x14(%ebp)
   41674:	c7 45 fc 00 00 00 00 	movl   $0x0,-0x4(%ebp)
   4167b:	8b 45 ec             	mov    -0x14(%ebp),%eax
   4167e:	89 c2                	mov    %eax,%edx
   41680:	ed                   	in     (%dx),%eax
   41681:	89 45 fc             	mov    %eax,-0x4(%ebp)
   41684:	8b 45 fc             	mov    -0x4(%ebp),%eax
   41687:	89 ec                	mov    %ebp,%esp
   41689:	5d                   	pop    %ebp
   4168a:	c3                   	ret    

0004168b <insl>:
   4168b:	55                   	push   %ebp
   4168c:	89 e5                	mov    %esp,%ebp
   4168e:	57                   	push   %edi
   4168f:	53                   	push   %ebx
   41690:	8b 45 10             	mov    0x10(%ebp),%eax
   41693:	8b 5d 0c             	mov    0xc(%ebp),%ebx
   41696:	8b 55 08             	mov    0x8(%ebp),%edx
   41699:	89 c1                	mov    %eax,%ecx
   4169b:	89 df                	mov    %ebx,%edi
   4169d:	9c                   	pushf  
   4169e:	fc                   	cld    
   4169f:	f3 6d                	rep insl (%dx),%es:(%edi)
   416a1:	9d                   	popf   
   416a2:	90                   	nop
   416a3:	5b                   	pop    %ebx
   416a4:	5f                   	pop    %edi
   416a5:	5d                   	pop    %ebp
   416a6:	c3                   	ret    

000416a7 <io_wait>:
   416a7:	55                   	push   %ebp
   416a8:	89 e5                	mov    %esp,%ebp
   416aa:	90                   	nop
   416ab:	90                   	nop
   416ac:	90                   	nop
   416ad:	90                   	nop
   416ae:	90                   	nop
   416af:	90                   	nop
   416b0:	90                   	nop
   416b1:	90                   	nop
   416b2:	90                   	nop
   416b3:	90                   	nop
   416b4:	5d                   	pop    %ebp
   416b5:	c3                   	ret    

000416b6 <krnl_main>:
   416b6:	55                   	push   %ebp
   416b7:	89 e5                	mov    %esp,%ebp
   416b9:	83 ec 18             	sub    $0x18,%esp
   416bc:	fa                   	cli    
   416bd:	0f 01 15 00 80 04 00 	lgdtl  0x48000
   416c4:	c7 44 24 08 78 00 00 	movl   $0x78,0x8(%esp)
   416cb:	00 
   416cc:	8b 45 08             	mov    0x8(%ebp),%eax
   416cf:	89 44 24 04          	mov    %eax,0x4(%esp)
   416d3:	c7 04 24 40 c6 04 00 	movl   $0x4c640,(%esp)
   416da:	e8 72 06 00 00       	call   41d51 <memcpy>
   416df:	e8 e3 fe ff ff       	call   415c7 <initialize_crap>
   416e4:	c7 04 24 7e d0 04 00 	movl   $0x4d07e,(%esp)
   416eb:	e8 f0 15 00 00       	call   42ce0 <putstring>
   416f0:	90                   	nop
   416f1:	89 ec                	mov    %ebp,%esp
   416f3:	5d                   	pop    %ebp
   416f4:	c3                   	ret    

000416f5 <set_usage_bitmap>:
   416f5:	55                   	push   %ebp
   416f6:	89 e5                	mov    %esp,%ebp
   416f8:	56                   	push   %esi
   416f9:	53                   	push   %ebx
   416fa:	8b 45 0c             	mov    0xc(%ebp),%eax
   416fd:	c1 e8 11             	shr    $0x11,%eax
   41700:	8d 0c 85 00 00 00 00 	lea    0x0(,%eax,4),%ecx
   41707:	8b 55 08             	mov    0x8(%ebp),%edx
   4170a:	01 ca                	add    %ecx,%edx
   4170c:	8b 32                	mov    (%edx),%esi
   4170e:	8b 55 0c             	mov    0xc(%ebp),%edx
   41711:	c1 ea 0c             	shr    $0xc,%edx
   41714:	83 e2 1f             	and    $0x1f,%edx
   41717:	bb 01 00 00 00       	mov    $0x1,%ebx
   4171c:	88 d1                	mov    %dl,%cl
   4171e:	d3 e3                	shl    %cl,%ebx
   41720:	89 da                	mov    %ebx,%edx
   41722:	8d 0c 85 00 00 00 00 	lea    0x0(,%eax,4),%ecx
   41729:	8b 45 08             	mov    0x8(%ebp),%eax
   4172c:	01 c8                	add    %ecx,%eax
   4172e:	09 f2                	or     %esi,%edx
   41730:	89 10                	mov    %edx,(%eax)
   41732:	90                   	nop
   41733:	5b                   	pop    %ebx
   41734:	5e                   	pop    %esi
   41735:	5d                   	pop    %ebp
   41736:	c3                   	ret    

00041737 <unset_usage_bitmap>:
   41737:	55                   	push   %ebp
   41738:	89 e5                	mov    %esp,%ebp
   4173a:	56                   	push   %esi
   4173b:	53                   	push   %ebx
   4173c:	8b 45 0c             	mov    0xc(%ebp),%eax
   4173f:	c1 e8 11             	shr    $0x11,%eax
   41742:	8d 0c 85 00 00 00 00 	lea    0x0(,%eax,4),%ecx
   41749:	8b 55 08             	mov    0x8(%ebp),%edx
   4174c:	01 ca                	add    %ecx,%edx
   4174e:	8b 32                	mov    (%edx),%esi
   41750:	8b 55 0c             	mov    0xc(%ebp),%edx
   41753:	83 e2 1f             	and    $0x1f,%edx
   41756:	bb 01 00 00 00       	mov    $0x1,%ebx
   4175b:	88 d1                	mov    %dl,%cl
   4175d:	d3 e3                	shl    %cl,%ebx
   4175f:	89 da                	mov    %ebx,%edx
   41761:	f7 d2                	not    %edx
   41763:	8d 0c 85 00 00 00 00 	lea    0x0(,%eax,4),%ecx
   4176a:	8b 45 08             	mov    0x8(%ebp),%eax
   4176d:	01 c8                	add    %ecx,%eax
   4176f:	21 f2                	and    %esi,%edx
   41771:	89 10                	mov    %edx,(%eax)
   41773:	90                   	nop
   41774:	5b                   	pop    %ebx
   41775:	5e                   	pop    %esi
   41776:	5d                   	pop    %ebp
   41777:	c3                   	ret    

00041778 <test_usage_bitmap>:
   41778:	55                   	push   %ebp
   41779:	89 e5                	mov    %esp,%ebp
   4177b:	53                   	push   %ebx
   4177c:	8b 45 0c             	mov    0xc(%ebp),%eax
   4177f:	c1 e8 11             	shr    $0x11,%eax
   41782:	8d 14 85 00 00 00 00 	lea    0x0(,%eax,4),%edx
   41789:	8b 45 08             	mov    0x8(%ebp),%eax
   4178c:	01 d0                	add    %edx,%eax
   4178e:	8b 18                	mov    (%eax),%ebx
   41790:	8b 45 0c             	mov    0xc(%ebp),%eax
   41793:	83 e0 1f             	and    $0x1f,%eax
   41796:	ba 01 00 00 00       	mov    $0x1,%edx
   4179b:	88 c1                	mov    %al,%cl
   4179d:	d3 e2                	shl    %cl,%edx
   4179f:	89 d0                	mov    %edx,%eax
   417a1:	21 d8                	and    %ebx,%eax
   417a3:	85 c0                	test   %eax,%eax
   417a5:	0f 94 c0             	sete   %al
   417a8:	0f b6 c0             	movzbl %al,%eax
   417ab:	5b                   	pop    %ebx
   417ac:	5d                   	pop    %ebp
   417ad:	c3                   	ret    

000417ae <find_first_from_bm>:
   417ae:	55                   	push   %ebp
   417af:	89 e5                	mov    %esp,%ebp
   417b1:	83 ec 28             	sub    $0x28,%esp
   417b4:	c7 45 f4 00 00 00 00 	movl   $0x0,-0xc(%ebp)
   417bb:	eb 61                	jmp    4181e <find_first_from_bm+0x70>
   417bd:	8b 15 bc c6 04 00    	mov    0x4c6bc,%edx
   417c3:	8b 45 f4             	mov    -0xc(%ebp),%eax
   417c6:	c1 e0 02             	shl    $0x2,%eax
   417c9:	01 d0                	add    %edx,%eax
   417cb:	8b 00                	mov    (%eax),%eax
   417cd:	83 f8 ff             	cmp    $0xffffffff,%eax
   417d0:	74 49                	je     4181b <find_first_from_bm+0x6d>
   417d2:	c7 45 f0 00 00 00 00 	movl   $0x0,-0x10(%ebp)
   417d9:	eb 3a                	jmp    41815 <find_first_from_bm+0x67>
   417db:	8b 45 f0             	mov    -0x10(%ebp),%eax
   417de:	c1 e0 0c             	shl    $0xc,%eax
   417e1:	89 c2                	mov    %eax,%edx
   417e3:	8b 45 f4             	mov    -0xc(%ebp),%eax
   417e6:	c1 e0 11             	shl    $0x11,%eax
   417e9:	01 c2                	add    %eax,%edx
   417eb:	a1 bc c6 04 00       	mov    0x4c6bc,%eax
   417f0:	89 54 24 04          	mov    %edx,0x4(%esp)
   417f4:	89 04 24             	mov    %eax,(%esp)
   417f7:	e8 7c ff ff ff       	call   41778 <test_usage_bitmap>
   417fc:	85 c0                	test   %eax,%eax
   417fe:	74 12                	je     41812 <find_first_from_bm+0x64>
   41800:	8b 45 f0             	mov    -0x10(%ebp),%eax
   41803:	c1 e0 0c             	shl    $0xc,%eax
   41806:	89 c2                	mov    %eax,%edx
   41808:	8b 45 f4             	mov    -0xc(%ebp),%eax
   4180b:	c1 e0 11             	shl    $0x11,%eax
   4180e:	01 d0                	add    %edx,%eax
   41810:	eb 37                	jmp    41849 <find_first_from_bm+0x9b>
   41812:	ff 45 f0             	incl   -0x10(%ebp)
   41815:	83 7d f0 1f          	cmpl   $0x1f,-0x10(%ebp)
   41819:	7e c0                	jle    417db <find_first_from_bm+0x2d>
   4181b:	ff 45 f4             	incl   -0xc(%ebp)
   4181e:	a1 b8 c6 04 00       	mov    0x4c6b8,%eax
   41823:	39 45 f4             	cmp    %eax,-0xc(%ebp)
   41826:	72 95                	jb     417bd <find_first_from_bm+0xf>
   41828:	c7 44 24 08 8f d0 04 	movl   $0x4d08f,0x8(%esp)
   4182f:	00 
   41830:	c7 44 24 04 24 00 00 	movl   $0x24,0x4(%esp)
   41837:	00 
   41838:	c7 04 24 93 d0 04 00 	movl   $0x4d093,(%esp)
   4183f:	e8 55 04 00 00       	call   41c99 <__internal_panic>
   41844:	b8 ff ff ff ff       	mov    $0xffffffff,%eax
   41849:	89 ec                	mov    %ebp,%esp
   4184b:	5d                   	pop    %ebp
   4184c:	c3                   	ret    

0004184d <krnl_map_page>:
   4184d:	55                   	push   %ebp
   4184e:	89 e5                	mov    %esp,%ebp
   41850:	83 ec 28             	sub    $0x28,%esp
   41853:	8b 45 10             	mov    0x10(%ebp),%eax
   41856:	c1 e8 16             	shr    $0x16,%eax
   41859:	8d 14 85 00 00 00 00 	lea    0x0(,%eax,4),%edx
   41860:	8b 45 08             	mov    0x8(%ebp),%eax
   41863:	01 d0                	add    %edx,%eax
   41865:	8b 00                	mov    (%eax),%eax
   41867:	85 c0                	test   %eax,%eax
   41869:	75 20                	jne    4188b <krnl_map_page+0x3e>
   4186b:	c7 04 24 00 10 00 00 	movl   $0x1000,(%esp)
   41872:	e8 2d f7 ff ff       	call   40fa4 <khamalloc>
   41877:	8b 55 10             	mov    0x10(%ebp),%edx
   4187a:	c1 ea 16             	shr    $0x16,%edx
   4187d:	8d 0c 95 00 00 00 00 	lea    0x0(,%edx,4),%ecx
   41884:	8b 55 08             	mov    0x8(%ebp),%edx
   41887:	01 ca                	add    %ecx,%edx
   41889:	89 02                	mov    %eax,(%edx)
   4188b:	8b 45 10             	mov    0x10(%ebp),%eax
   4188e:	c1 e8 16             	shr    $0x16,%eax
   41891:	8d 14 85 00 00 00 00 	lea    0x0(,%eax,4),%edx
   41898:	8b 45 08             	mov    0x8(%ebp),%eax
   4189b:	01 d0                	add    %edx,%eax
   4189d:	0f b6 10             	movzbl (%eax),%edx
   418a0:	80 e2 7f             	and    $0x7f,%dl
   418a3:	88 10                	mov    %dl,(%eax)
   418a5:	8b 45 10             	mov    0x10(%ebp),%eax
   418a8:	c1 e8 16             	shr    $0x16,%eax
   418ab:	8d 14 85 00 00 00 00 	lea    0x0(,%eax,4),%edx
   418b2:	8b 45 08             	mov    0x8(%ebp),%eax
   418b5:	01 d0                	add    %edx,%eax
   418b7:	0f b6 10             	movzbl (%eax),%edx
   418ba:	80 e2 fb             	and    $0xfb,%dl
   418bd:	88 10                	mov    %dl,(%eax)
   418bf:	8b 45 10             	mov    0x10(%ebp),%eax
   418c2:	c1 e8 16             	shr    $0x16,%eax
   418c5:	8d 14 85 00 00 00 00 	lea    0x0(,%eax,4),%edx
   418cc:	8b 45 08             	mov    0x8(%ebp),%eax
   418cf:	01 d0                	add    %edx,%eax
   418d1:	0f b6 10             	movzbl (%eax),%edx
   418d4:	80 ca 02             	or     $0x2,%dl
   418d7:	88 10                	mov    %dl,(%eax)
   418d9:	8b 45 10             	mov    0x10(%ebp),%eax
   418dc:	c1 e8 16             	shr    $0x16,%eax
   418df:	8d 14 85 00 00 00 00 	lea    0x0(,%eax,4),%edx
   418e6:	8b 45 08             	mov    0x8(%ebp),%eax
   418e9:	01 d0                	add    %edx,%eax
   418eb:	0f b6 10             	movzbl (%eax),%edx
   418ee:	80 ca 01             	or     $0x1,%dl
   418f1:	88 10                	mov    %dl,(%eax)
   418f3:	8b 45 10             	mov    0x10(%ebp),%eax
   418f6:	25 ff ff 3f 00       	and    $0x3fffff,%eax
   418fb:	c1 e8 0c             	shr    $0xc,%eax
   418fe:	8d 14 85 00 00 00 00 	lea    0x0(,%eax,4),%edx
   41905:	8b 45 10             	mov    0x10(%ebp),%eax
   41908:	c1 e8 16             	shr    $0x16,%eax
   4190b:	8d 0c 85 00 00 00 00 	lea    0x0(,%eax,4),%ecx
   41912:	8b 45 08             	mov    0x8(%ebp),%eax
   41915:	01 c8                	add    %ecx,%eax
   41917:	8b 00                	mov    (%eax),%eax
   41919:	c1 e8 0c             	shr    $0xc,%eax
   4191c:	c1 e0 0c             	shl    $0xc,%eax
   4191f:	01 d0                	add    %edx,%eax
   41921:	89 45 f4             	mov    %eax,-0xc(%ebp)
   41924:	8b 45 0c             	mov    0xc(%ebp),%eax
   41927:	25 00 f0 ff ff       	and    $0xfffff000,%eax
   4192c:	89 c2                	mov    %eax,%edx
   4192e:	8b 45 f4             	mov    -0xc(%ebp),%eax
   41931:	89 10                	mov    %edx,(%eax)
   41933:	8b 45 f4             	mov    -0xc(%ebp),%eax
   41936:	0f b6 10             	movzbl (%eax),%edx
   41939:	80 ca 01             	or     $0x1,%dl
   4193c:	88 10                	mov    %dl,(%eax)
   4193e:	8b 45 f4             	mov    -0xc(%ebp),%eax
   41941:	0f b6 10             	movzbl (%eax),%edx
   41944:	80 ca 02             	or     $0x2,%dl
   41947:	88 10                	mov    %dl,(%eax)
   41949:	8b 45 f4             	mov    -0xc(%ebp),%eax
   4194c:	0f b6 10             	movzbl (%eax),%edx
   4194f:	80 e2 fb             	and    $0xfb,%dl
   41952:	88 10                	mov    %dl,(%eax)
   41954:	90                   	nop
   41955:	89 ec                	mov    %ebp,%esp
   41957:	5d                   	pop    %ebp
   41958:	c3                   	ret    

00041959 <krnl_map_page_debug>:
   41959:	55                   	push   %ebp
   4195a:	89 e5                	mov    %esp,%ebp
   4195c:	83 ec 28             	sub    $0x28,%esp
   4195f:	8b 45 10             	mov    0x10(%ebp),%eax
   41962:	c1 e8 16             	shr    $0x16,%eax
   41965:	8d 14 85 00 00 00 00 	lea    0x0(,%eax,4),%edx
   4196c:	8b 45 08             	mov    0x8(%ebp),%eax
   4196f:	01 d0                	add    %edx,%eax
   41971:	8b 00                	mov    (%eax),%eax
   41973:	85 c0                	test   %eax,%eax
   41975:	75 20                	jne    41997 <krnl_map_page_debug+0x3e>
   41977:	c7 04 24 00 10 00 00 	movl   $0x1000,(%esp)
   4197e:	e8 21 f6 ff ff       	call   40fa4 <khamalloc>
   41983:	8b 55 10             	mov    0x10(%ebp),%edx
   41986:	c1 ea 16             	shr    $0x16,%edx
   41989:	8d 0c 95 00 00 00 00 	lea    0x0(,%edx,4),%ecx
   41990:	8b 55 08             	mov    0x8(%ebp),%edx
   41993:	01 ca                	add    %ecx,%edx
   41995:	89 02                	mov    %eax,(%edx)
   41997:	8b 45 10             	mov    0x10(%ebp),%eax
   4199a:	c1 e8 16             	shr    $0x16,%eax
   4199d:	8d 14 85 00 00 00 00 	lea    0x0(,%eax,4),%edx
   419a4:	8b 45 08             	mov    0x8(%ebp),%eax
   419a7:	01 d0                	add    %edx,%eax
   419a9:	0f b6 10             	movzbl (%eax),%edx
   419ac:	80 e2 7f             	and    $0x7f,%dl
   419af:	88 10                	mov    %dl,(%eax)
   419b1:	8b 45 10             	mov    0x10(%ebp),%eax
   419b4:	c1 e8 16             	shr    $0x16,%eax
   419b7:	8d 14 85 00 00 00 00 	lea    0x0(,%eax,4),%edx
   419be:	8b 45 08             	mov    0x8(%ebp),%eax
   419c1:	01 d0                	add    %edx,%eax
   419c3:	0f b6 10             	movzbl (%eax),%edx
   419c6:	80 e2 fb             	and    $0xfb,%dl
   419c9:	88 10                	mov    %dl,(%eax)
   419cb:	8b 45 10             	mov    0x10(%ebp),%eax
   419ce:	c1 e8 16             	shr    $0x16,%eax
   419d1:	8d 14 85 00 00 00 00 	lea    0x0(,%eax,4),%edx
   419d8:	8b 45 08             	mov    0x8(%ebp),%eax
   419db:	01 d0                	add    %edx,%eax
   419dd:	0f b6 10             	movzbl (%eax),%edx
   419e0:	80 ca 02             	or     $0x2,%dl
   419e3:	88 10                	mov    %dl,(%eax)
   419e5:	8b 45 10             	mov    0x10(%ebp),%eax
   419e8:	c1 e8 16             	shr    $0x16,%eax
   419eb:	8d 14 85 00 00 00 00 	lea    0x0(,%eax,4),%edx
   419f2:	8b 45 08             	mov    0x8(%ebp),%eax
   419f5:	01 d0                	add    %edx,%eax
   419f7:	0f b6 10             	movzbl (%eax),%edx
   419fa:	80 ca 01             	or     $0x1,%dl
   419fd:	88 10                	mov    %dl,(%eax)
   419ff:	8b 45 10             	mov    0x10(%ebp),%eax
   41a02:	25 ff ff 3f 00       	and    $0x3fffff,%eax
   41a07:	c1 e8 0c             	shr    $0xc,%eax
   41a0a:	8d 14 85 00 00 00 00 	lea    0x0(,%eax,4),%edx
   41a11:	8b 45 10             	mov    0x10(%ebp),%eax
   41a14:	c1 e8 16             	shr    $0x16,%eax
   41a17:	8d 0c 85 00 00 00 00 	lea    0x0(,%eax,4),%ecx
   41a1e:	8b 45 08             	mov    0x8(%ebp),%eax
   41a21:	01 c8                	add    %ecx,%eax
   41a23:	8b 00                	mov    (%eax),%eax
   41a25:	c1 e8 0c             	shr    $0xc,%eax
   41a28:	c1 e0 0c             	shl    $0xc,%eax
   41a2b:	01 d0                	add    %edx,%eax
   41a2d:	89 45 f4             	mov    %eax,-0xc(%ebp)
   41a30:	8b 45 0c             	mov    0xc(%ebp),%eax
   41a33:	25 00 f0 ff ff       	and    $0xfffff000,%eax
   41a38:	89 c2                	mov    %eax,%edx
   41a3a:	8b 45 f4             	mov    -0xc(%ebp),%eax
   41a3d:	89 10                	mov    %edx,(%eax)
   41a3f:	8b 45 f4             	mov    -0xc(%ebp),%eax
   41a42:	0f b6 10             	movzbl (%eax),%edx
   41a45:	80 ca 01             	or     $0x1,%dl
   41a48:	88 10                	mov    %dl,(%eax)
   41a4a:	8b 45 f4             	mov    -0xc(%ebp),%eax
   41a4d:	0f b6 10             	movzbl (%eax),%edx
   41a50:	80 ca 02             	or     $0x2,%dl
   41a53:	88 10                	mov    %dl,(%eax)
   41a55:	8b 45 f4             	mov    -0xc(%ebp),%eax
   41a58:	0f b6 10             	movzbl (%eax),%edx
   41a5b:	80 e2 fb             	and    $0xfb,%dl
   41a5e:	88 10                	mov    %dl,(%eax)
   41a60:	8b 45 f4             	mov    -0xc(%ebp),%eax
   41a63:	0f b6 10             	movzbl (%eax),%edx
   41a66:	80 e2 ef             	and    $0xef,%dl
   41a69:	88 10                	mov    %dl,(%eax)
   41a6b:	90                   	nop
   41a6c:	89 ec                	mov    %ebp,%esp
   41a6e:	5d                   	pop    %ebp
   41a6f:	c3                   	ret    

00041a70 <flush_page_table>:
   41a70:	8b 44 24 04          	mov    0x4(%esp),%eax
   41a74:	0f 22 d8             	mov    %eax,%cr3
   41a77:	0f 20 c0             	mov    %cr0,%eax
   41a7a:	0d 01 00 00 80       	or     $0x80000001,%eax
   41a7f:	0f 22 c0             	mov    %eax,%cr0
   41a82:	c3                   	ret    

00041a83 <init_paging>:
   41a83:	55                   	push   %ebp
   41a84:	89 e5                	mov    %esp,%ebp
   41a86:	83 ec 28             	sub    $0x28,%esp
   41a89:	c7 04 24 9d d0 04 00 	movl   $0x4d09d,(%esp)
   41a90:	e8 4b 12 00 00       	call   42ce0 <putstring>
   41a95:	a1 48 c6 04 00       	mov    0x4c648,%eax
   41a9a:	05 00 08 00 00       	add    $0x800,%eax
   41a9f:	c1 e8 07             	shr    $0x7,%eax
   41aa2:	a3 b8 c6 04 00       	mov    %eax,0x4c6b8
   41aa7:	a1 48 c6 04 00       	mov    0x4c648,%eax
   41aac:	05 00 04 00 00       	add    $0x400,%eax
   41ab1:	c1 e8 07             	shr    $0x7,%eax
   41ab4:	89 04 24             	mov    %eax,(%esp)
   41ab7:	e8 35 f5 ff ff       	call   40ff1 <khmalloc>
   41abc:	a3 bc c6 04 00       	mov    %eax,0x4c6bc
   41ac1:	c7 04 24 00 10 00 00 	movl   $0x1000,(%esp)
   41ac8:	e8 d7 f4 ff ff       	call   40fa4 <khamalloc>
   41acd:	a3 c0 c6 04 00       	mov    %eax,0x4c6c0
   41ad2:	c7 04 24 00 20 00 00 	movl   $0x2000,(%esp)
   41ad9:	e8 c6 f4 ff ff       	call   40fa4 <khamalloc>
   41ade:	89 c2                	mov    %eax,%edx
   41ae0:	a1 c0 c6 04 00       	mov    0x4c6c0,%eax
   41ae5:	89 10                	mov    %edx,(%eax)
   41ae7:	a1 c0 c6 04 00       	mov    0x4c6c0,%eax
   41aec:	0f b6 10             	movzbl (%eax),%edx
   41aef:	80 e2 7f             	and    $0x7f,%dl
   41af2:	88 10                	mov    %dl,(%eax)
   41af4:	a1 c0 c6 04 00       	mov    0x4c6c0,%eax
   41af9:	0f b6 10             	movzbl (%eax),%edx
   41afc:	80 e2 fb             	and    $0xfb,%dl
   41aff:	88 10                	mov    %dl,(%eax)
   41b01:	a1 c0 c6 04 00       	mov    0x4c6c0,%eax
   41b06:	0f b6 10             	movzbl (%eax),%edx
   41b09:	80 ca 02             	or     $0x2,%dl
   41b0c:	88 10                	mov    %dl,(%eax)
   41b0e:	a1 c0 c6 04 00       	mov    0x4c6c0,%eax
   41b13:	0f b6 10             	movzbl (%eax),%edx
   41b16:	80 ca 01             	or     $0x1,%dl
   41b19:	88 10                	mov    %dl,(%eax)
   41b1b:	c7 45 f4 00 00 00 00 	movl   $0x0,-0xc(%ebp)
   41b22:	eb 22                	jmp    41b46 <init_paging+0xc3>
   41b24:	a1 c0 c6 04 00       	mov    0x4c6c0,%eax
   41b29:	8b 55 f4             	mov    -0xc(%ebp),%edx
   41b2c:	89 54 24 08          	mov    %edx,0x8(%esp)
   41b30:	8b 55 f4             	mov    -0xc(%ebp),%edx
   41b33:	89 54 24 04          	mov    %edx,0x4(%esp)
   41b37:	89 04 24             	mov    %eax,(%esp)
   41b3a:	e8 0e fd ff ff       	call   4184d <krnl_map_page>
   41b3f:	81 45 f4 00 10 00 00 	addl   $0x1000,-0xc(%ebp)
   41b46:	81 7d f4 00 00 80 00 	cmpl   $0x800000,-0xc(%ebp)
   41b4d:	76 d5                	jbe    41b24 <init_paging+0xa1>
   41b4f:	c7 45 f0 00 00 00 00 	movl   $0x0,-0x10(%ebp)
   41b56:	eb 43                	jmp    41b9b <init_paging+0x118>
   41b58:	a1 98 c6 04 00       	mov    0x4c698,%eax
   41b5d:	8b 15 9c c6 04 00    	mov    0x4c69c,%edx
   41b63:	89 c2                	mov    %eax,%edx
   41b65:	8b 45 f0             	mov    -0x10(%ebp),%eax
   41b68:	c1 e0 0c             	shl    $0xc,%eax
   41b6b:	8d 0c 02             	lea    (%edx,%eax,1),%ecx
   41b6e:	a1 98 c6 04 00       	mov    0x4c698,%eax
   41b73:	8b 15 9c c6 04 00    	mov    0x4c69c,%edx
   41b79:	89 c2                	mov    %eax,%edx
   41b7b:	8b 45 f0             	mov    -0x10(%ebp),%eax
   41b7e:	c1 e0 0c             	shl    $0xc,%eax
   41b81:	01 c2                	add    %eax,%edx
   41b83:	a1 c0 c6 04 00       	mov    0x4c6c0,%eax
   41b88:	89 4c 24 08          	mov    %ecx,0x8(%esp)
   41b8c:	89 54 24 04          	mov    %edx,0x4(%esp)
   41b90:	89 04 24             	mov    %eax,(%esp)
   41b93:	e8 b5 fc ff ff       	call   4184d <krnl_map_page>
   41b98:	ff 45 f0             	incl   -0x10(%ebp)
   41b9b:	a1 a8 c6 04 00       	mov    0x4c6a8,%eax
   41ba0:	8b 15 a4 c6 04 00    	mov    0x4c6a4,%edx
   41ba6:	42                   	inc    %edx
   41ba7:	0f af d0             	imul   %eax,%edx
   41baa:	0f b6 05 ac c6 04 00 	movzbl 0x4c6ac,%eax
   41bb1:	c0 e8 03             	shr    $0x3,%al
   41bb4:	0f b6 c0             	movzbl %al,%eax
   41bb7:	0f af c2             	imul   %edx,%eax
   41bba:	c1 e8 0d             	shr    $0xd,%eax
   41bbd:	89 c2                	mov    %eax,%edx
   41bbf:	89 d0                	mov    %edx,%eax
   41bc1:	01 c0                	add    %eax,%eax
   41bc3:	01 d0                	add    %edx,%eax
   41bc5:	39 45 f0             	cmp    %eax,-0x10(%ebp)
   41bc8:	72 8e                	jb     41b58 <init_paging+0xd5>
   41bca:	a1 c0 c6 04 00       	mov    0x4c6c0,%eax
   41bcf:	89 04 24             	mov    %eax,(%esp)
   41bd2:	e8 99 fe ff ff       	call   41a70 <flush_page_table>
   41bd7:	a1 50 80 04 00       	mov    0x48050,%eax
   41bdc:	89 04 24             	mov    %eax,(%esp)
   41bdf:	e8 fc 10 00 00       	call   42ce0 <putstring>
   41be4:	90                   	nop
   41be5:	89 ec                	mov    %ebp,%esp
   41be7:	5d                   	pop    %ebp
   41be8:	c3                   	ret    

00041be9 <init_multitask>:
   41be9:	55                   	push   %ebp
   41bea:	89 e5                	mov    %esp,%ebp
   41bec:	83 ec 28             	sub    $0x28,%esp
   41bef:	89 5d fc             	mov    %ebx,-0x4(%ebp)
   41bf2:	c7 04 24 ac d0 04 00 	movl   $0x4d0ac,(%esp)
   41bf9:	e8 e2 10 00 00       	call   42ce0 <putstring>
   41bfe:	c7 04 24 31 10 00 00 	movl   $0x1031,(%esp)
   41c05:	e8 e7 f3 ff ff       	call   40ff1 <khmalloc>
   41c0a:	a3 cc c6 04 00       	mov    %eax,0x4c6cc
   41c0f:	a1 cc c6 04 00       	mov    0x4c6cc,%eax
   41c14:	a3 d0 c6 04 00       	mov    %eax,0x4c6d0
   41c19:	a1 d8 c6 04 00       	mov    0x4c6d8,%eax
   41c1e:	8b 15 dc c6 04 00    	mov    0x4c6dc,%edx
   41c24:	89 c1                	mov    %eax,%ecx
   41c26:	89 d3                	mov    %edx,%ebx
   41c28:	83 c1 01             	add    $0x1,%ecx
   41c2b:	83 d3 00             	adc    $0x0,%ebx
   41c2e:	89 0d d8 c6 04 00    	mov    %ecx,0x4c6d8
   41c34:	89 1d dc c6 04 00    	mov    %ebx,0x4c6dc
   41c3a:	8b 0d d0 c6 04 00    	mov    0x4c6d0,%ecx
   41c40:	89 41 21             	mov    %eax,0x21(%ecx)
   41c43:	89 51 25             	mov    %edx,0x25(%ecx)
   41c46:	a1 d0 c6 04 00       	mov    0x4c6d0,%eax
   41c4b:	c7 40 1d 88 90 04 00 	movl   $0x49088,0x1d(%eax)
   41c52:	a1 d0 c6 04 00       	mov    0x4c6d0,%eax
   41c57:	c6 40 1c 00          	movb   $0x0,0x1c(%eax)
   41c5b:	a1 d0 c6 04 00       	mov    0x4c6d0,%eax
   41c60:	c7 00 00 00 00 00    	movl   $0x0,(%eax)
   41c66:	0f 20 d8             	mov    %cr3,%eax
   41c69:	89 c2                	mov    %eax,%edx
   41c6b:	89 55 f4             	mov    %edx,-0xc(%ebp)
   41c6e:	a1 d0 c6 04 00       	mov    0x4c6d0,%eax
   41c73:	8b 55 f4             	mov    -0xc(%ebp),%edx
   41c76:	89 50 14             	mov    %edx,0x14(%eax)
   41c79:	c7 05 c8 c6 04 00 01 	movl   $0x1,0x4c6c8
   41c80:	00 00 00 
   41c83:	fb                   	sti    
   41c84:	a1 50 80 04 00       	mov    0x48050,%eax
   41c89:	89 04 24             	mov    %eax,(%esp)
   41c8c:	e8 4f 10 00 00       	call   42ce0 <putstring>
   41c91:	90                   	nop
   41c92:	8b 5d fc             	mov    -0x4(%ebp),%ebx
   41c95:	89 ec                	mov    %ebp,%esp
   41c97:	5d                   	pop    %ebp
   41c98:	c3                   	ret    

00041c99 <__internal_panic>:
   41c99:	55                   	push   %ebp
   41c9a:	89 e5                	mov    %esp,%ebp
   41c9c:	83 ec 48             	sub    $0x48,%esp
   41c9f:	ff 45 08             	incl   0x8(%ebp)
   41ca2:	c7 05 f1 01 04 00 46 	movl   $0x46,0x401f1
   41ca9:	00 00 00 
   41cac:	c7 44 24 30 00 00 00 	movl   $0x0,0x30(%esp)
   41cb3:	00 
   41cb4:	c7 44 24 2c 00 00 00 	movl   $0x0,0x2c(%esp)
   41cbb:	00 
   41cbc:	c7 44 24 28 00 00 00 	movl   $0x0,0x28(%esp)
   41cc3:	00 
   41cc4:	c7 44 24 24 00 00 00 	movl   $0x0,0x24(%esp)
   41ccb:	00 
   41ccc:	c7 44 24 20 00 00 00 	movl   $0x0,0x20(%esp)
   41cd3:	00 
   41cd4:	c7 44 24 1c 00 00 00 	movl   $0x0,0x1c(%esp)
   41cdb:	00 
   41cdc:	c7 44 24 18 00 00 00 	movl   $0x0,0x18(%esp)
   41ce3:	00 
   41ce4:	c7 44 24 14 00 00 00 	movl   $0x0,0x14(%esp)
   41ceb:	00 
   41cec:	c7 44 24 10 00 00 00 	movl   $0x0,0x10(%esp)
   41cf3:	00 
   41cf4:	c7 44 24 0c 00 00 00 	movl   $0x0,0xc(%esp)
   41cfb:	00 
   41cfc:	8b 45 0c             	mov    0xc(%ebp),%eax
   41cff:	89 44 24 08          	mov    %eax,0x8(%esp)
   41d03:	c7 44 24 04 00 00 00 	movl   $0x0,0x4(%esp)
   41d0a:	00 
   41d0b:	8b 45 10             	mov    0x10(%ebp),%eax
   41d0e:	89 04 24             	mov    %eax,(%esp)
   41d11:	e8 7f e6 ff ff       	call   40395 <exception_handler>
   41d16:	c7 04 24 f0 00 00 00 	movl   $0xf0,(%esp)
   41d1d:	e8 fe 0a 00 00       	call   42820 <set_term_colour>
   41d22:	fa                   	cli    
   41d23:	f4                   	hlt    
   41d24:	90                   	nop
   41d25:	89 ec                	mov    %ebp,%esp
   41d27:	5d                   	pop    %ebp
   41d28:	c3                   	ret    

00041d29 <strlen>:
   41d29:	55                   	push   %ebp
   41d2a:	89 e5                	mov    %esp,%ebp
   41d2c:	83 ec 10             	sub    $0x10,%esp
   41d2f:	c7 45 fc 00 00 00 00 	movl   $0x0,-0x4(%ebp)
   41d36:	eb 03                	jmp    41d3b <strlen+0x12>
   41d38:	ff 45 fc             	incl   -0x4(%ebp)
   41d3b:	8b 55 08             	mov    0x8(%ebp),%edx
   41d3e:	8b 45 fc             	mov    -0x4(%ebp),%eax
   41d41:	01 d0                	add    %edx,%eax
   41d43:	0f b6 00             	movzbl (%eax),%eax
   41d46:	84 c0                	test   %al,%al
   41d48:	75 ee                	jne    41d38 <strlen+0xf>
   41d4a:	8b 45 fc             	mov    -0x4(%ebp),%eax
   41d4d:	89 ec                	mov    %ebp,%esp
   41d4f:	5d                   	pop    %ebp
   41d50:	c3                   	ret    

00041d51 <memcpy>:
   41d51:	55                   	push   %ebp
   41d52:	89 e5                	mov    %esp,%ebp
   41d54:	83 ec 10             	sub    $0x10,%esp
   41d57:	8b 45 08             	mov    0x8(%ebp),%eax
   41d5a:	89 45 fc             	mov    %eax,-0x4(%ebp)
   41d5d:	8b 45 0c             	mov    0xc(%ebp),%eax
   41d60:	89 45 f8             	mov    %eax,-0x8(%ebp)
   41d63:	eb 1a                	jmp    41d7f <memcpy+0x2e>
   41d65:	8b 55 f8             	mov    -0x8(%ebp),%edx
   41d68:	8d 42 01             	lea    0x1(%edx),%eax
   41d6b:	89 45 f8             	mov    %eax,-0x8(%ebp)
   41d6e:	8b 45 fc             	mov    -0x4(%ebp),%eax
   41d71:	8d 48 01             	lea    0x1(%eax),%ecx
   41d74:	89 4d fc             	mov    %ecx,-0x4(%ebp)
   41d77:	0f b6 12             	movzbl (%edx),%edx
   41d7a:	88 10                	mov    %dl,(%eax)
   41d7c:	ff 4d 10             	decl   0x10(%ebp)
   41d7f:	8b 45 f8             	mov    -0x8(%ebp),%eax
   41d82:	83 e0 03             	and    $0x3,%eax
   41d85:	85 c0                	test   %eax,%eax
   41d87:	74 06                	je     41d8f <memcpy+0x3e>
   41d89:	83 7d 10 00          	cmpl   $0x0,0x10(%ebp)
   41d8d:	75 d6                	jne    41d65 <memcpy+0x14>
   41d8f:	8b 45 fc             	mov    -0x4(%ebp),%eax
   41d92:	83 e0 03             	and    $0x3,%eax
   41d95:	85 c0                	test   %eax,%eax
   41d97:	0f 85 eb 00 00 00    	jne    41e88 <memcpy+0x137>
   41d9d:	eb 46                	jmp    41de5 <memcpy+0x94>
   41d9f:	8b 45 f8             	mov    -0x8(%ebp),%eax
   41da2:	8b 10                	mov    (%eax),%edx
   41da4:	8b 45 fc             	mov    -0x4(%ebp),%eax
   41da7:	89 10                	mov    %edx,(%eax)
   41da9:	8b 45 f8             	mov    -0x8(%ebp),%eax
   41dac:	83 c0 04             	add    $0x4,%eax
   41daf:	8b 55 fc             	mov    -0x4(%ebp),%edx
   41db2:	83 c2 04             	add    $0x4,%edx
   41db5:	8b 00                	mov    (%eax),%eax
   41db7:	89 02                	mov    %eax,(%edx)
   41db9:	8b 45 f8             	mov    -0x8(%ebp),%eax
   41dbc:	83 c0 08             	add    $0x8,%eax
   41dbf:	8b 55 fc             	mov    -0x4(%ebp),%edx
   41dc2:	83 c2 08             	add    $0x8,%edx
   41dc5:	8b 00                	mov    (%eax),%eax
   41dc7:	89 02                	mov    %eax,(%edx)
   41dc9:	8b 45 f8             	mov    -0x8(%ebp),%eax
   41dcc:	83 c0 0c             	add    $0xc,%eax
   41dcf:	8b 55 fc             	mov    -0x4(%ebp),%edx
   41dd2:	83 c2 0c             	add    $0xc,%edx
   41dd5:	8b 00                	mov    (%eax),%eax
   41dd7:	89 02                	mov    %eax,(%edx)
   41dd9:	83 45 f8 10          	addl   $0x10,-0x8(%ebp)
   41ddd:	83 45 fc 10          	addl   $0x10,-0x4(%ebp)
   41de1:	83 6d 10 10          	subl   $0x10,0x10(%ebp)
   41de5:	83 7d 10 0f          	cmpl   $0xf,0x10(%ebp)
   41de9:	77 b4                	ja     41d9f <memcpy+0x4e>
   41deb:	8b 45 10             	mov    0x10(%ebp),%eax
   41dee:	83 e0 08             	and    $0x8,%eax
   41df1:	85 c0                	test   %eax,%eax
   41df3:	74 22                	je     41e17 <memcpy+0xc6>
   41df5:	8b 45 f8             	mov    -0x8(%ebp),%eax
   41df8:	8b 10                	mov    (%eax),%edx
   41dfa:	8b 45 fc             	mov    -0x4(%ebp),%eax
   41dfd:	89 10                	mov    %edx,(%eax)
   41dff:	8b 45 f8             	mov    -0x8(%ebp),%eax
   41e02:	83 c0 04             	add    $0x4,%eax
   41e05:	8b 55 fc             	mov    -0x4(%ebp),%edx
   41e08:	83 c2 04             	add    $0x4,%edx
   41e0b:	8b 00                	mov    (%eax),%eax
   41e0d:	89 02                	mov    %eax,(%edx)
   41e0f:	83 45 fc 08          	addl   $0x8,-0x4(%ebp)
   41e13:	83 45 f8 08          	addl   $0x8,-0x8(%ebp)
   41e17:	8b 45 10             	mov    0x10(%ebp),%eax
   41e1a:	83 e0 04             	and    $0x4,%eax
   41e1d:	85 c0                	test   %eax,%eax
   41e1f:	74 12                	je     41e33 <memcpy+0xe2>
   41e21:	8b 45 f8             	mov    -0x8(%ebp),%eax
   41e24:	8b 10                	mov    (%eax),%edx
   41e26:	8b 45 fc             	mov    -0x4(%ebp),%eax
   41e29:	89 10                	mov    %edx,(%eax)
   41e2b:	83 45 fc 04          	addl   $0x4,-0x4(%ebp)
   41e2f:	83 45 f8 04          	addl   $0x4,-0x8(%ebp)
   41e33:	8b 45 10             	mov    0x10(%ebp),%eax
   41e36:	83 e0 02             	and    $0x2,%eax
   41e39:	85 c0                	test   %eax,%eax
   41e3b:	74 2e                	je     41e6b <memcpy+0x11a>
   41e3d:	8b 55 f8             	mov    -0x8(%ebp),%edx
   41e40:	8d 42 01             	lea    0x1(%edx),%eax
   41e43:	89 45 f8             	mov    %eax,-0x8(%ebp)
   41e46:	8b 45 fc             	mov    -0x4(%ebp),%eax
   41e49:	8d 48 01             	lea    0x1(%eax),%ecx
   41e4c:	89 4d fc             	mov    %ecx,-0x4(%ebp)
   41e4f:	0f b6 12             	movzbl (%edx),%edx
   41e52:	88 10                	mov    %dl,(%eax)
   41e54:	8b 55 f8             	mov    -0x8(%ebp),%edx
   41e57:	8d 42 01             	lea    0x1(%edx),%eax
   41e5a:	89 45 f8             	mov    %eax,-0x8(%ebp)
   41e5d:	8b 45 fc             	mov    -0x4(%ebp),%eax
   41e60:	8d 48 01             	lea    0x1(%eax),%ecx
   41e63:	89 4d fc             	mov    %ecx,-0x4(%ebp)
   41e66:	0f b6 12             	movzbl (%edx),%edx
   41e69:	88 10                	mov    %dl,(%eax)
   41e6b:	8b 45 10             	mov    0x10(%ebp),%eax
   41e6e:	83 e0 01             	and    $0x1,%eax
   41e71:	85 c0                	test   %eax,%eax
   41e73:	74 0b                	je     41e80 <memcpy+0x12f>
   41e75:	8b 45 f8             	mov    -0x8(%ebp),%eax
   41e78:	0f b6 10             	movzbl (%eax),%edx
   41e7b:	8b 45 fc             	mov    -0x4(%ebp),%eax
   41e7e:	88 10                	mov    %dl,(%eax)
   41e80:	8b 45 08             	mov    0x8(%ebp),%eax
   41e83:	e9 e3 05 00 00       	jmp    4246b <memcpy+0x71a>
   41e88:	83 7d 10 1f          	cmpl   $0x1f,0x10(%ebp)
   41e8c:	0f 86 df 02 00 00    	jbe    42171 <memcpy+0x420>
   41e92:	8b 45 fc             	mov    -0x4(%ebp),%eax
   41e95:	83 e0 03             	and    $0x3,%eax
   41e98:	83 f8 03             	cmp    $0x3,%eax
   41e9b:	0f 84 03 02 00 00    	je     420a4 <memcpy+0x353>
   41ea1:	83 f8 03             	cmp    $0x3,%eax
   41ea4:	0f 87 c7 02 00 00    	ja     42171 <memcpy+0x420>
   41eaa:	83 f8 01             	cmp    $0x1,%eax
   41ead:	74 0e                	je     41ebd <memcpy+0x16c>
   41eaf:	83 f8 02             	cmp    $0x2,%eax
   41eb2:	0f 84 03 01 00 00    	je     41fbb <memcpy+0x26a>
   41eb8:	e9 b4 02 00 00       	jmp    42171 <memcpy+0x420>
   41ebd:	8b 45 f8             	mov    -0x8(%ebp),%eax
   41ec0:	8b 00                	mov    (%eax),%eax
   41ec2:	89 45 f4             	mov    %eax,-0xc(%ebp)
   41ec5:	8b 55 f8             	mov    -0x8(%ebp),%edx
   41ec8:	8d 42 01             	lea    0x1(%edx),%eax
   41ecb:	89 45 f8             	mov    %eax,-0x8(%ebp)
   41ece:	8b 45 fc             	mov    -0x4(%ebp),%eax
   41ed1:	8d 48 01             	lea    0x1(%eax),%ecx
   41ed4:	89 4d fc             	mov    %ecx,-0x4(%ebp)
   41ed7:	0f b6 12             	movzbl (%edx),%edx
   41eda:	88 10                	mov    %dl,(%eax)
   41edc:	8b 55 f8             	mov    -0x8(%ebp),%edx
   41edf:	8d 42 01             	lea    0x1(%edx),%eax
   41ee2:	89 45 f8             	mov    %eax,-0x8(%ebp)
   41ee5:	8b 45 fc             	mov    -0x4(%ebp),%eax
   41ee8:	8d 48 01             	lea    0x1(%eax),%ecx
   41eeb:	89 4d fc             	mov    %ecx,-0x4(%ebp)
   41eee:	0f b6 12             	movzbl (%edx),%edx
   41ef1:	88 10                	mov    %dl,(%eax)
   41ef3:	8b 55 f8             	mov    -0x8(%ebp),%edx
   41ef6:	8d 42 01             	lea    0x1(%edx),%eax
   41ef9:	89 45 f8             	mov    %eax,-0x8(%ebp)
   41efc:	8b 45 fc             	mov    -0x4(%ebp),%eax
   41eff:	8d 48 01             	lea    0x1(%eax),%ecx
   41f02:	89 4d fc             	mov    %ecx,-0x4(%ebp)
   41f05:	0f b6 12             	movzbl (%edx),%edx
   41f08:	88 10                	mov    %dl,(%eax)
   41f0a:	83 6d 10 03          	subl   $0x3,0x10(%ebp)
   41f0e:	e9 99 00 00 00       	jmp    41fac <memcpy+0x25b>
   41f13:	8b 45 f8             	mov    -0x8(%ebp),%eax
   41f16:	40                   	inc    %eax
   41f17:	8b 00                	mov    (%eax),%eax
   41f19:	89 45 f0             	mov    %eax,-0x10(%ebp)
   41f1c:	8b 45 f4             	mov    -0xc(%ebp),%eax
   41f1f:	c1 e8 18             	shr    $0x18,%eax
   41f22:	89 c2                	mov    %eax,%edx
   41f24:	8b 45 f0             	mov    -0x10(%ebp),%eax
   41f27:	c1 e0 08             	shl    $0x8,%eax
   41f2a:	09 c2                	or     %eax,%edx
   41f2c:	8b 45 fc             	mov    -0x4(%ebp),%eax
   41f2f:	89 10                	mov    %edx,(%eax)
   41f31:	8b 45 f8             	mov    -0x8(%ebp),%eax
   41f34:	83 c0 05             	add    $0x5,%eax
   41f37:	8b 00                	mov    (%eax),%eax
   41f39:	89 45 f4             	mov    %eax,-0xc(%ebp)
   41f3c:	8b 45 f0             	mov    -0x10(%ebp),%eax
   41f3f:	c1 e8 18             	shr    $0x18,%eax
   41f42:	89 c1                	mov    %eax,%ecx
   41f44:	8b 45 f4             	mov    -0xc(%ebp),%eax
   41f47:	c1 e0 08             	shl    $0x8,%eax
   41f4a:	89 c2                	mov    %eax,%edx
   41f4c:	8b 45 fc             	mov    -0x4(%ebp),%eax
   41f4f:	83 c0 04             	add    $0x4,%eax
   41f52:	09 ca                	or     %ecx,%edx
   41f54:	89 10                	mov    %edx,(%eax)
   41f56:	8b 45 f8             	mov    -0x8(%ebp),%eax
   41f59:	83 c0 09             	add    $0x9,%eax
   41f5c:	8b 00                	mov    (%eax),%eax
   41f5e:	89 45 f0             	mov    %eax,-0x10(%ebp)
   41f61:	8b 45 f4             	mov    -0xc(%ebp),%eax
   41f64:	c1 e8 18             	shr    $0x18,%eax
   41f67:	89 c1                	mov    %eax,%ecx
   41f69:	8b 45 f0             	mov    -0x10(%ebp),%eax
   41f6c:	c1 e0 08             	shl    $0x8,%eax
   41f6f:	89 c2                	mov    %eax,%edx
   41f71:	8b 45 fc             	mov    -0x4(%ebp),%eax
   41f74:	83 c0 08             	add    $0x8,%eax
   41f77:	09 ca                	or     %ecx,%edx
   41f79:	89 10                	mov    %edx,(%eax)
   41f7b:	8b 45 f8             	mov    -0x8(%ebp),%eax
   41f7e:	83 c0 0d             	add    $0xd,%eax
   41f81:	8b 00                	mov    (%eax),%eax
   41f83:	89 45 f4             	mov    %eax,-0xc(%ebp)
   41f86:	8b 45 f0             	mov    -0x10(%ebp),%eax
   41f89:	c1 e8 18             	shr    $0x18,%eax
   41f8c:	89 c1                	mov    %eax,%ecx
   41f8e:	8b 45 f4             	mov    -0xc(%ebp),%eax
   41f91:	c1 e0 08             	shl    $0x8,%eax
   41f94:	89 c2                	mov    %eax,%edx
   41f96:	8b 45 fc             	mov    -0x4(%ebp),%eax
   41f99:	83 c0 0c             	add    $0xc,%eax
   41f9c:	09 ca                	or     %ecx,%edx
   41f9e:	89 10                	mov    %edx,(%eax)
   41fa0:	83 45 f8 10          	addl   $0x10,-0x8(%ebp)
   41fa4:	83 45 fc 10          	addl   $0x10,-0x4(%ebp)
   41fa8:	83 6d 10 10          	subl   $0x10,0x10(%ebp)
   41fac:	83 7d 10 10          	cmpl   $0x10,0x10(%ebp)
   41fb0:	0f 87 5d ff ff ff    	ja     41f13 <memcpy+0x1c2>
   41fb6:	e9 b6 01 00 00       	jmp    42171 <memcpy+0x420>
   41fbb:	8b 45 f8             	mov    -0x8(%ebp),%eax
   41fbe:	8b 00                	mov    (%eax),%eax
   41fc0:	89 45 f4             	mov    %eax,-0xc(%ebp)
   41fc3:	8b 55 f8             	mov    -0x8(%ebp),%edx
   41fc6:	8d 42 01             	lea    0x1(%edx),%eax
   41fc9:	89 45 f8             	mov    %eax,-0x8(%ebp)
   41fcc:	8b 45 fc             	mov    -0x4(%ebp),%eax
   41fcf:	8d 48 01             	lea    0x1(%eax),%ecx
   41fd2:	89 4d fc             	mov    %ecx,-0x4(%ebp)
   41fd5:	0f b6 12             	movzbl (%edx),%edx
   41fd8:	88 10                	mov    %dl,(%eax)
   41fda:	8b 55 f8             	mov    -0x8(%ebp),%edx
   41fdd:	8d 42 01             	lea    0x1(%edx),%eax
   41fe0:	89 45 f8             	mov    %eax,-0x8(%ebp)
   41fe3:	8b 45 fc             	mov    -0x4(%ebp),%eax
   41fe6:	8d 48 01             	lea    0x1(%eax),%ecx
   41fe9:	89 4d fc             	mov    %ecx,-0x4(%ebp)
   41fec:	0f b6 12             	movzbl (%edx),%edx
   41fef:	88 10                	mov    %dl,(%eax)
   41ff1:	83 6d 10 02          	subl   $0x2,0x10(%ebp)
   41ff5:	e9 9b 00 00 00       	jmp    42095 <memcpy+0x344>
   41ffa:	8b 45 f8             	mov    -0x8(%ebp),%eax
   41ffd:	83 c0 02             	add    $0x2,%eax
   42000:	8b 00                	mov    (%eax),%eax
   42002:	89 45 f0             	mov    %eax,-0x10(%ebp)
   42005:	8b 45 f4             	mov    -0xc(%ebp),%eax
   42008:	c1 e8 10             	shr    $0x10,%eax
   4200b:	89 c2                	mov    %eax,%edx
   4200d:	8b 45 f0             	mov    -0x10(%ebp),%eax
   42010:	c1 e0 10             	shl    $0x10,%eax
   42013:	09 c2                	or     %eax,%edx
   42015:	8b 45 fc             	mov    -0x4(%ebp),%eax
   42018:	89 10                	mov    %edx,(%eax)
   4201a:	8b 45 f8             	mov    -0x8(%ebp),%eax
   4201d:	83 c0 06             	add    $0x6,%eax
   42020:	8b 00                	mov    (%eax),%eax
   42022:	89 45 f4             	mov    %eax,-0xc(%ebp)
   42025:	8b 45 f0             	mov    -0x10(%ebp),%eax
   42028:	c1 e8 10             	shr    $0x10,%eax
   4202b:	89 c1                	mov    %eax,%ecx
   4202d:	8b 45 f4             	mov    -0xc(%ebp),%eax
   42030:	c1 e0 10             	shl    $0x10,%eax
   42033:	89 c2                	mov    %eax,%edx
   42035:	8b 45 fc             	mov    -0x4(%ebp),%eax
   42038:	83 c0 04             	add    $0x4,%eax
   4203b:	09 ca                	or     %ecx,%edx
   4203d:	89 10                	mov    %edx,(%eax)
   4203f:	8b 45 f8             	mov    -0x8(%ebp),%eax
   42042:	83 c0 0a             	add    $0xa,%eax
   42045:	8b 00                	mov    (%eax),%eax
   42047:	89 45 f0             	mov    %eax,-0x10(%ebp)
   4204a:	8b 45 f4             	mov    -0xc(%ebp),%eax
   4204d:	c1 e8 10             	shr    $0x10,%eax
   42050:	89 c1                	mov    %eax,%ecx
   42052:	8b 45 f0             	mov    -0x10(%ebp),%eax
   42055:	c1 e0 10             	shl    $0x10,%eax
   42058:	89 c2                	mov    %eax,%edx
   4205a:	8b 45 fc             	mov    -0x4(%ebp),%eax
   4205d:	83 c0 08             	add    $0x8,%eax
   42060:	09 ca                	or     %ecx,%edx
   42062:	89 10                	mov    %edx,(%eax)
   42064:	8b 45 f8             	mov    -0x8(%ebp),%eax
   42067:	83 c0 0e             	add    $0xe,%eax
   4206a:	8b 00                	mov    (%eax),%eax
   4206c:	89 45 f4             	mov    %eax,-0xc(%ebp)
   4206f:	8b 45 f0             	mov    -0x10(%ebp),%eax
   42072:	c1 e8 10             	shr    $0x10,%eax
   42075:	89 c1                	mov    %eax,%ecx
   42077:	8b 45 f4             	mov    -0xc(%ebp),%eax
   4207a:	c1 e0 10             	shl    $0x10,%eax
   4207d:	89 c2                	mov    %eax,%edx
   4207f:	8b 45 fc             	mov    -0x4(%ebp),%eax
   42082:	83 c0 0c             	add    $0xc,%eax
   42085:	09 ca                	or     %ecx,%edx
   42087:	89 10                	mov    %edx,(%eax)
   42089:	83 45 f8 10          	addl   $0x10,-0x8(%ebp)
   4208d:	83 45 fc 10          	addl   $0x10,-0x4(%ebp)
   42091:	83 6d 10 10          	subl   $0x10,0x10(%ebp)
   42095:	83 7d 10 11          	cmpl   $0x11,0x10(%ebp)
   42099:	0f 87 5b ff ff ff    	ja     41ffa <memcpy+0x2a9>
   4209f:	e9 cd 00 00 00       	jmp    42171 <memcpy+0x420>
   420a4:	8b 45 f8             	mov    -0x8(%ebp),%eax
   420a7:	8b 00                	mov    (%eax),%eax
   420a9:	89 45 f4             	mov    %eax,-0xc(%ebp)
   420ac:	8b 55 f8             	mov    -0x8(%ebp),%edx
   420af:	8d 42 01             	lea    0x1(%edx),%eax
   420b2:	89 45 f8             	mov    %eax,-0x8(%ebp)
   420b5:	8b 45 fc             	mov    -0x4(%ebp),%eax
   420b8:	8d 48 01             	lea    0x1(%eax),%ecx
   420bb:	89 4d fc             	mov    %ecx,-0x4(%ebp)
   420be:	0f b6 12             	movzbl (%edx),%edx
   420c1:	88 10                	mov    %dl,(%eax)
   420c3:	ff 4d 10             	decl   0x10(%ebp)
   420c6:	e9 9b 00 00 00       	jmp    42166 <memcpy+0x415>
   420cb:	8b 45 f8             	mov    -0x8(%ebp),%eax
   420ce:	83 c0 03             	add    $0x3,%eax
   420d1:	8b 00                	mov    (%eax),%eax
   420d3:	89 45 f0             	mov    %eax,-0x10(%ebp)
   420d6:	8b 45 f4             	mov    -0xc(%ebp),%eax
   420d9:	c1 e8 08             	shr    $0x8,%eax
   420dc:	89 c2                	mov    %eax,%edx
   420de:	8b 45 f0             	mov    -0x10(%ebp),%eax
   420e1:	c1 e0 18             	shl    $0x18,%eax
   420e4:	09 c2                	or     %eax,%edx
   420e6:	8b 45 fc             	mov    -0x4(%ebp),%eax
   420e9:	89 10                	mov    %edx,(%eax)
   420eb:	8b 45 f8             	mov    -0x8(%ebp),%eax
   420ee:	83 c0 07             	add    $0x7,%eax
   420f1:	8b 00                	mov    (%eax),%eax
   420f3:	89 45 f4             	mov    %eax,-0xc(%ebp)
   420f6:	8b 45 f0             	mov    -0x10(%ebp),%eax
   420f9:	c1 e8 08             	shr    $0x8,%eax
   420fc:	89 c1                	mov    %eax,%ecx
   420fe:	8b 45 f4             	mov    -0xc(%ebp),%eax
   42101:	c1 e0 18             	shl    $0x18,%eax
   42104:	89 c2                	mov    %eax,%edx
   42106:	8b 45 fc             	mov    -0x4(%ebp),%eax
   42109:	83 c0 04             	add    $0x4,%eax
   4210c:	09 ca                	or     %ecx,%edx
   4210e:	89 10                	mov    %edx,(%eax)
   42110:	8b 45 f8             	mov    -0x8(%ebp),%eax
   42113:	83 c0 0b             	add    $0xb,%eax
   42116:	8b 00                	mov    (%eax),%eax
   42118:	89 45 f0             	mov    %eax,-0x10(%ebp)
   4211b:	8b 45 f4             	mov    -0xc(%ebp),%eax
   4211e:	c1 e8 08             	shr    $0x8,%eax
   42121:	89 c1                	mov    %eax,%ecx
   42123:	8b 45 f0             	mov    -0x10(%ebp),%eax
   42126:	c1 e0 18             	shl    $0x18,%eax
   42129:	89 c2                	mov    %eax,%edx
   4212b:	8b 45 fc             	mov    -0x4(%ebp),%eax
   4212e:	83 c0 08             	add    $0x8,%eax
   42131:	09 ca                	or     %ecx,%edx
   42133:	89 10                	mov    %edx,(%eax)
   42135:	8b 45 f8             	mov    -0x8(%ebp),%eax
   42138:	83 c0 0f             	add    $0xf,%eax
   4213b:	8b 00                	mov    (%eax),%eax
   4213d:	89 45 f4             	mov    %eax,-0xc(%ebp)
   42140:	8b 45 f0             	mov    -0x10(%ebp),%eax
   42143:	c1 e8 08             	shr    $0x8,%eax
   42146:	89 c1                	mov    %eax,%ecx
   42148:	8b 45 f4             	mov    -0xc(%ebp),%eax
   4214b:	c1 e0 18             	shl    $0x18,%eax
   4214e:	89 c2                	mov    %eax,%edx
   42150:	8b 45 fc             	mov    -0x4(%ebp),%eax
   42153:	83 c0 0c             	add    $0xc,%eax
   42156:	09 ca                	or     %ecx,%edx
   42158:	89 10                	mov    %edx,(%eax)
   4215a:	83 45 f8 10          	addl   $0x10,-0x8(%ebp)
   4215e:	83 45 fc 10          	addl   $0x10,-0x4(%ebp)
   42162:	83 6d 10 10          	subl   $0x10,0x10(%ebp)
   42166:	83 7d 10 12          	cmpl   $0x12,0x10(%ebp)
   4216a:	0f 87 5b ff ff ff    	ja     420cb <memcpy+0x37a>
   42170:	90                   	nop
   42171:	8b 45 10             	mov    0x10(%ebp),%eax
   42174:	83 e0 10             	and    $0x10,%eax
   42177:	85 c0                	test   %eax,%eax
   42179:	0f 84 70 01 00 00    	je     422ef <memcpy+0x59e>
   4217f:	8b 55 f8             	mov    -0x8(%ebp),%edx
   42182:	8d 42 01             	lea    0x1(%edx),%eax
   42185:	89 45 f8             	mov    %eax,-0x8(%ebp)
   42188:	8b 45 fc             	mov    -0x4(%ebp),%eax
   4218b:	8d 48 01             	lea    0x1(%eax),%ecx
   4218e:	89 4d fc             	mov    %ecx,-0x4(%ebp)
   42191:	0f b6 12             	movzbl (%edx),%edx
   42194:	88 10                	mov    %dl,(%eax)
   42196:	8b 55 f8             	mov    -0x8(%ebp),%edx
   42199:	8d 42 01             	lea    0x1(%edx),%eax
   4219c:	89 45 f8             	mov    %eax,-0x8(%ebp)
   4219f:	8b 45 fc             	mov    -0x4(%ebp),%eax
   421a2:	8d 48 01             	lea    0x1(%eax),%ecx
   421a5:	89 4d fc             	mov    %ecx,-0x4(%ebp)
   421a8:	0f b6 12             	movzbl (%edx),%edx
   421ab:	88 10                	mov    %dl,(%eax)
   421ad:	8b 55 f8             	mov    -0x8(%ebp),%edx
   421b0:	8d 42 01             	lea    0x1(%edx),%eax
   421b3:	89 45 f8             	mov    %eax,-0x8(%ebp)
   421b6:	8b 45 fc             	mov    -0x4(%ebp),%eax
   421b9:	8d 48 01             	lea    0x1(%eax),%ecx
   421bc:	89 4d fc             	mov    %ecx,-0x4(%ebp)
   421bf:	0f b6 12             	movzbl (%edx),%edx
   421c2:	88 10                	mov    %dl,(%eax)
   421c4:	8b 55 f8             	mov    -0x8(%ebp),%edx
   421c7:	8d 42 01             	lea    0x1(%edx),%eax
   421ca:	89 45 f8             	mov    %eax,-0x8(%ebp)
   421cd:	8b 45 fc             	mov    -0x4(%ebp),%eax
   421d0:	8d 48 01             	lea    0x1(%eax),%ecx
   421d3:	89 4d fc             	mov    %ecx,-0x4(%ebp)
   421d6:	0f b6 12             	movzbl (%edx),%edx
   421d9:	88 10                	mov    %dl,(%eax)
   421db:	8b 55 f8             	mov    -0x8(%ebp),%edx
   421de:	8d 42 01             	lea    0x1(%edx),%eax
   421e1:	89 45 f8             	mov    %eax,-0x8(%ebp)
   421e4:	8b 45 fc             	mov    -0x4(%ebp),%eax
   421e7:	8d 48 01             	lea    0x1(%eax),%ecx
   421ea:	89 4d fc             	mov    %ecx,-0x4(%ebp)
   421ed:	0f b6 12             	movzbl (%edx),%edx
   421f0:	88 10                	mov    %dl,(%eax)
   421f2:	8b 55 f8             	mov    -0x8(%ebp),%edx
   421f5:	8d 42 01             	lea    0x1(%edx),%eax
   421f8:	89 45 f8             	mov    %eax,-0x8(%ebp)
   421fb:	8b 45 fc             	mov    -0x4(%ebp),%eax
   421fe:	8d 48 01             	lea    0x1(%eax),%ecx
   42201:	89 4d fc             	mov    %ecx,-0x4(%ebp)
   42204:	0f b6 12             	movzbl (%edx),%edx
   42207:	88 10                	mov    %dl,(%eax)
   42209:	8b 55 f8             	mov    -0x8(%ebp),%edx
   4220c:	8d 42 01             	lea    0x1(%edx),%eax
   4220f:	89 45 f8             	mov    %eax,-0x8(%ebp)
   42212:	8b 45 fc             	mov    -0x4(%ebp),%eax
   42215:	8d 48 01             	lea    0x1(%eax),%ecx
   42218:	89 4d fc             	mov    %ecx,-0x4(%ebp)
   4221b:	0f b6 12             	movzbl (%edx),%edx
   4221e:	88 10                	mov    %dl,(%eax)
   42220:	8b 55 f8             	mov    -0x8(%ebp),%edx
   42223:	8d 42 01             	lea    0x1(%edx),%eax
   42226:	89 45 f8             	mov    %eax,-0x8(%ebp)
   42229:	8b 45 fc             	mov    -0x4(%ebp),%eax
   4222c:	8d 48 01             	lea    0x1(%eax),%ecx
   4222f:	89 4d fc             	mov    %ecx,-0x4(%ebp)
   42232:	0f b6 12             	movzbl (%edx),%edx
   42235:	88 10                	mov    %dl,(%eax)
   42237:	8b 55 f8             	mov    -0x8(%ebp),%edx
   4223a:	8d 42 01             	lea    0x1(%edx),%eax
   4223d:	89 45 f8             	mov    %eax,-0x8(%ebp)
   42240:	8b 45 fc             	mov    -0x4(%ebp),%eax
   42243:	8d 48 01             	lea    0x1(%eax),%ecx
   42246:	89 4d fc             	mov    %ecx,-0x4(%ebp)
   42249:	0f b6 12             	movzbl (%edx),%edx
   4224c:	88 10                	mov    %dl,(%eax)
   4224e:	8b 55 f8             	mov    -0x8(%ebp),%edx
   42251:	8d 42 01             	lea    0x1(%edx),%eax
   42254:	89 45 f8             	mov    %eax,-0x8(%ebp)
   42257:	8b 45 fc             	mov    -0x4(%ebp),%eax
   4225a:	8d 48 01             	lea    0x1(%eax),%ecx
   4225d:	89 4d fc             	mov    %ecx,-0x4(%ebp)
   42260:	0f b6 12             	movzbl (%edx),%edx
   42263:	88 10                	mov    %dl,(%eax)
   42265:	8b 55 f8             	mov    -0x8(%ebp),%edx
   42268:	8d 42 01             	lea    0x1(%edx),%eax
   4226b:	89 45 f8             	mov    %eax,-0x8(%ebp)
   4226e:	8b 45 fc             	mov    -0x4(%ebp),%eax
   42271:	8d 48 01             	lea    0x1(%eax),%ecx
   42274:	89 4d fc             	mov    %ecx,-0x4(%ebp)
   42277:	0f b6 12             	movzbl (%edx),%edx
   4227a:	88 10                	mov    %dl,(%eax)
   4227c:	8b 55 f8             	mov    -0x8(%ebp),%edx
   4227f:	8d 42 01             	lea    0x1(%edx),%eax
   42282:	89 45 f8             	mov    %eax,-0x8(%ebp)
   42285:	8b 45 fc             	mov    -0x4(%ebp),%eax
   42288:	8d 48 01             	lea    0x1(%eax),%ecx
   4228b:	89 4d fc             	mov    %ecx,-0x4(%ebp)
   4228e:	0f b6 12             	movzbl (%edx),%edx
   42291:	88 10                	mov    %dl,(%eax)
   42293:	8b 55 f8             	mov    -0x8(%ebp),%edx
   42296:	8d 42 01             	lea    0x1(%edx),%eax
   42299:	89 45 f8             	mov    %eax,-0x8(%ebp)
   4229c:	8b 45 fc             	mov    -0x4(%ebp),%eax
   4229f:	8d 48 01             	lea    0x1(%eax),%ecx
   422a2:	89 4d fc             	mov    %ecx,-0x4(%ebp)
   422a5:	0f b6 12             	movzbl (%edx),%edx
   422a8:	88 10                	mov    %dl,(%eax)
   422aa:	8b 55 f8             	mov    -0x8(%ebp),%edx
   422ad:	8d 42 01             	lea    0x1(%edx),%eax
   422b0:	89 45 f8             	mov    %eax,-0x8(%ebp)
   422b3:	8b 45 fc             	mov    -0x4(%ebp),%eax
   422b6:	8d 48 01             	lea    0x1(%eax),%ecx
   422b9:	89 4d fc             	mov    %ecx,-0x4(%ebp)
   422bc:	0f b6 12             	movzbl (%edx),%edx
   422bf:	88 10                	mov    %dl,(%eax)
   422c1:	8b 55 f8             	mov    -0x8(%ebp),%edx
   422c4:	8d 42 01             	lea    0x1(%edx),%eax
   422c7:	89 45 f8             	mov    %eax,-0x8(%ebp)
   422ca:	8b 45 fc             	mov    -0x4(%ebp),%eax
   422cd:	8d 48 01             	lea    0x1(%eax),%ecx
   422d0:	89 4d fc             	mov    %ecx,-0x4(%ebp)
   422d3:	0f b6 12             	movzbl (%edx),%edx
   422d6:	88 10                	mov    %dl,(%eax)
   422d8:	8b 55 f8             	mov    -0x8(%ebp),%edx
   422db:	8d 42 01             	lea    0x1(%edx),%eax
   422de:	89 45 f8             	mov    %eax,-0x8(%ebp)
   422e1:	8b 45 fc             	mov    -0x4(%ebp),%eax
   422e4:	8d 48 01             	lea    0x1(%eax),%ecx
   422e7:	89 4d fc             	mov    %ecx,-0x4(%ebp)
   422ea:	0f b6 12             	movzbl (%edx),%edx
   422ed:	88 10                	mov    %dl,(%eax)
   422ef:	8b 45 10             	mov    0x10(%ebp),%eax
   422f2:	83 e0 08             	and    $0x8,%eax
   422f5:	85 c0                	test   %eax,%eax
   422f7:	0f 84 b8 00 00 00    	je     423b5 <memcpy+0x664>
   422fd:	8b 55 f8             	mov    -0x8(%ebp),%edx
   42300:	8d 42 01             	lea    0x1(%edx),%eax
   42303:	89 45 f8             	mov    %eax,-0x8(%ebp)
   42306:	8b 45 fc             	mov    -0x4(%ebp),%eax
   42309:	8d 48 01             	lea    0x1(%eax),%ecx
   4230c:	89 4d fc             	mov    %ecx,-0x4(%ebp)
   4230f:	0f b6 12             	movzbl (%edx),%edx
   42312:	88 10                	mov    %dl,(%eax)
   42314:	8b 55 f8             	mov    -0x8(%ebp),%edx
   42317:	8d 42 01             	lea    0x1(%edx),%eax
   4231a:	89 45 f8             	mov    %eax,-0x8(%ebp)
   4231d:	8b 45 fc             	mov    -0x4(%ebp),%eax
   42320:	8d 48 01             	lea    0x1(%eax),%ecx
   42323:	89 4d fc             	mov    %ecx,-0x4(%ebp)
   42326:	0f b6 12             	movzbl (%edx),%edx
   42329:	88 10                	mov    %dl,(%eax)
   4232b:	8b 55 f8             	mov    -0x8(%ebp),%edx
   4232e:	8d 42 01             	lea    0x1(%edx),%eax
   42331:	89 45 f8             	mov    %eax,-0x8(%ebp)
   42334:	8b 45 fc             	mov    -0x4(%ebp),%eax
   42337:	8d 48 01             	lea    0x1(%eax),%ecx
   4233a:	89 4d fc             	mov    %ecx,-0x4(%ebp)
   4233d:	0f b6 12             	movzbl (%edx),%edx
   42340:	88 10                	mov    %dl,(%eax)
   42342:	8b 55 f8             	mov    -0x8(%ebp),%edx
   42345:	8d 42 01             	lea    0x1(%edx),%eax
   42348:	89 45 f8             	mov    %eax,-0x8(%ebp)
   4234b:	8b 45 fc             	mov    -0x4(%ebp),%eax
   4234e:	8d 48 01             	lea    0x1(%eax),%ecx
   42351:	89 4d fc             	mov    %ecx,-0x4(%ebp)
   42354:	0f b6 12             	movzbl (%edx),%edx
   42357:	88 10                	mov    %dl,(%eax)
   42359:	8b 55 f8             	mov    -0x8(%ebp),%edx
   4235c:	8d 42 01             	lea    0x1(%edx),%eax
   4235f:	89 45 f8             	mov    %eax,-0x8(%ebp)
   42362:	8b 45 fc             	mov    -0x4(%ebp),%eax
   42365:	8d 48 01             	lea    0x1(%eax),%ecx
   42368:	89 4d fc             	mov    %ecx,-0x4(%ebp)
   4236b:	0f b6 12             	movzbl (%edx),%edx
   4236e:	88 10                	mov    %dl,(%eax)
   42370:	8b 55 f8             	mov    -0x8(%ebp),%edx
   42373:	8d 42 01             	lea    0x1(%edx),%eax
   42376:	89 45 f8             	mov    %eax,-0x8(%ebp)
   42379:	8b 45 fc             	mov    -0x4(%ebp),%eax
   4237c:	8d 48 01             	lea    0x1(%eax),%ecx
   4237f:	89 4d fc             	mov    %ecx,-0x4(%ebp)
   42382:	0f b6 12             	movzbl (%edx),%edx
   42385:	88 10                	mov    %dl,(%eax)
   42387:	8b 55 f8             	mov    -0x8(%ebp),%edx
   4238a:	8d 42 01             	lea    0x1(%edx),%eax
   4238d:	89 45 f8             	mov    %eax,-0x8(%ebp)
   42390:	8b 45 fc             	mov    -0x4(%ebp),%eax
   42393:	8d 48 01             	lea    0x1(%eax),%ecx
   42396:	89 4d fc             	mov    %ecx,-0x4(%ebp)
   42399:	0f b6 12             	movzbl (%edx),%edx
   4239c:	88 10                	mov    %dl,(%eax)
   4239e:	8b 55 f8             	mov    -0x8(%ebp),%edx
   423a1:	8d 42 01             	lea    0x1(%edx),%eax
   423a4:	89 45 f8             	mov    %eax,-0x8(%ebp)
   423a7:	8b 45 fc             	mov    -0x4(%ebp),%eax
   423aa:	8d 48 01             	lea    0x1(%eax),%ecx
   423ad:	89 4d fc             	mov    %ecx,-0x4(%ebp)
   423b0:	0f b6 12             	movzbl (%edx),%edx
   423b3:	88 10                	mov    %dl,(%eax)
   423b5:	8b 45 10             	mov    0x10(%ebp),%eax
   423b8:	83 e0 04             	and    $0x4,%eax
   423bb:	85 c0                	test   %eax,%eax
   423bd:	74 5c                	je     4241b <memcpy+0x6ca>
   423bf:	8b 55 f8             	mov    -0x8(%ebp),%edx
   423c2:	8d 42 01             	lea    0x1(%edx),%eax
   423c5:	89 45 f8             	mov    %eax,-0x8(%ebp)
   423c8:	8b 45 fc             	mov    -0x4(%ebp),%eax
   423cb:	8d 48 01             	lea    0x1(%eax),%ecx
   423ce:	89 4d fc             	mov    %ecx,-0x4(%ebp)
   423d1:	0f b6 12             	movzbl (%edx),%edx
   423d4:	88 10                	mov    %dl,(%eax)
   423d6:	8b 55 f8             	mov    -0x8(%ebp),%edx
   423d9:	8d 42 01             	lea    0x1(%edx),%eax
   423dc:	89 45 f8             	mov    %eax,-0x8(%ebp)
   423df:	8b 45 fc             	mov    -0x4(%ebp),%eax
   423e2:	8d 48 01             	lea    0x1(%eax),%ecx
   423e5:	89 4d fc             	mov    %ecx,-0x4(%ebp)
   423e8:	0f b6 12             	movzbl (%edx),%edx
   423eb:	88 10                	mov    %dl,(%eax)
   423ed:	8b 55 f8             	mov    -0x8(%ebp),%edx
   423f0:	8d 42 01             	lea    0x1(%edx),%eax
   423f3:	89 45 f8             	mov    %eax,-0x8(%ebp)
   423f6:	8b 45 fc             	mov    -0x4(%ebp),%eax
   423f9:	8d 48 01             	lea    0x1(%eax),%ecx
   423fc:	89 4d fc             	mov    %ecx,-0x4(%ebp)
   423ff:	0f b6 12             	movzbl (%edx),%edx
   42402:	88 10                	mov    %dl,(%eax)
   42404:	8b 55 f8             	mov    -0x8(%ebp),%edx
   42407:	8d 42 01             	lea    0x1(%edx),%eax
   4240a:	89 45 f8             	mov    %eax,-0x8(%ebp)
   4240d:	8b 45 fc             	mov    -0x4(%ebp),%eax
   42410:	8d 48 01             	lea    0x1(%eax),%ecx
   42413:	89 4d fc             	mov    %ecx,-0x4(%ebp)
   42416:	0f b6 12             	movzbl (%edx),%edx
   42419:	88 10                	mov    %dl,(%eax)
   4241b:	8b 45 10             	mov    0x10(%ebp),%eax
   4241e:	83 e0 02             	and    $0x2,%eax
   42421:	85 c0                	test   %eax,%eax
   42423:	74 2e                	je     42453 <memcpy+0x702>
   42425:	8b 55 f8             	mov    -0x8(%ebp),%edx
   42428:	8d 42 01             	lea    0x1(%edx),%eax
   4242b:	89 45 f8             	mov    %eax,-0x8(%ebp)
   4242e:	8b 45 fc             	mov    -0x4(%ebp),%eax
   42431:	8d 48 01             	lea    0x1(%eax),%ecx
   42434:	89 4d fc             	mov    %ecx,-0x4(%ebp)
   42437:	0f b6 12             	movzbl (%edx),%edx
   4243a:	88 10                	mov    %dl,(%eax)
   4243c:	8b 55 f8             	mov    -0x8(%ebp),%edx
   4243f:	8d 42 01             	lea    0x1(%edx),%eax
   42442:	89 45 f8             	mov    %eax,-0x8(%ebp)
   42445:	8b 45 fc             	mov    -0x4(%ebp),%eax
   42448:	8d 48 01             	lea    0x1(%eax),%ecx
   4244b:	89 4d fc             	mov    %ecx,-0x4(%ebp)
   4244e:	0f b6 12             	movzbl (%edx),%edx
   42451:	88 10                	mov    %dl,(%eax)
   42453:	8b 45 10             	mov    0x10(%ebp),%eax
   42456:	83 e0 01             	and    $0x1,%eax
   42459:	85 c0                	test   %eax,%eax
   4245b:	74 0b                	je     42468 <memcpy+0x717>
   4245d:	8b 45 f8             	mov    -0x8(%ebp),%eax
   42460:	0f b6 10             	movzbl (%eax),%edx
   42463:	8b 45 fc             	mov    -0x4(%ebp),%eax
   42466:	88 10                	mov    %dl,(%eax)
   42468:	8b 45 08             	mov    0x8(%ebp),%eax
   4246b:	89 ec                	mov    %ebp,%esp
   4246d:	5d                   	pop    %ebp
   4246e:	c3                   	ret    

0004246f <memset>:
   4246f:	55                   	push   %ebp
   42470:	89 e5                	mov    %esp,%ebp
   42472:	56                   	push   %esi
   42473:	53                   	push   %ebx
   42474:	83 ec 20             	sub    $0x20,%esp
   42477:	8b 45 08             	mov    0x8(%ebp),%eax
   4247a:	89 45 f4             	mov    %eax,-0xc(%ebp)
   4247d:	83 7d 10 00          	cmpl   $0x0,0x10(%ebp)
   42481:	75 08                	jne    4248b <memset+0x1c>
   42483:	8b 45 08             	mov    0x8(%ebp),%eax
   42486:	e9 24 02 00 00       	jmp    426af <memset+0x240>
   4248b:	8b 45 0c             	mov    0xc(%ebp),%eax
   4248e:	88 c2                	mov    %al,%dl
   42490:	8b 45 f4             	mov    -0xc(%ebp),%eax
   42493:	88 10                	mov    %dl,(%eax)
   42495:	8b 45 10             	mov    0x10(%ebp),%eax
   42498:	8d 50 ff             	lea    -0x1(%eax),%edx
   4249b:	8b 45 f4             	mov    -0xc(%ebp),%eax
   4249e:	01 d0                	add    %edx,%eax
   424a0:	8b 55 0c             	mov    0xc(%ebp),%edx
   424a3:	88 10                	mov    %dl,(%eax)
   424a5:	83 7d 10 02          	cmpl   $0x2,0x10(%ebp)
   424a9:	77 08                	ja     424b3 <memset+0x44>
   424ab:	8b 45 08             	mov    0x8(%ebp),%eax
   424ae:	e9 fc 01 00 00       	jmp    426af <memset+0x240>
   424b3:	8b 45 f4             	mov    -0xc(%ebp),%eax
   424b6:	40                   	inc    %eax
   424b7:	8b 55 0c             	mov    0xc(%ebp),%edx
   424ba:	88 10                	mov    %dl,(%eax)
   424bc:	8b 45 f4             	mov    -0xc(%ebp),%eax
   424bf:	83 c0 02             	add    $0x2,%eax
   424c2:	8b 55 0c             	mov    0xc(%ebp),%edx
   424c5:	88 10                	mov    %dl,(%eax)
   424c7:	8b 45 10             	mov    0x10(%ebp),%eax
   424ca:	8d 50 fe             	lea    -0x2(%eax),%edx
   424cd:	8b 45 f4             	mov    -0xc(%ebp),%eax
   424d0:	01 d0                	add    %edx,%eax
   424d2:	8b 55 0c             	mov    0xc(%ebp),%edx
   424d5:	88 10                	mov    %dl,(%eax)
   424d7:	8b 45 10             	mov    0x10(%ebp),%eax
   424da:	8d 50 fd             	lea    -0x3(%eax),%edx
   424dd:	8b 45 f4             	mov    -0xc(%ebp),%eax
   424e0:	01 d0                	add    %edx,%eax
   424e2:	8b 55 0c             	mov    0xc(%ebp),%edx
   424e5:	88 10                	mov    %dl,(%eax)
   424e7:	83 7d 10 06          	cmpl   $0x6,0x10(%ebp)
   424eb:	77 08                	ja     424f5 <memset+0x86>
   424ed:	8b 45 08             	mov    0x8(%ebp),%eax
   424f0:	e9 ba 01 00 00       	jmp    426af <memset+0x240>
   424f5:	8b 45 f4             	mov    -0xc(%ebp),%eax
   424f8:	83 c0 03             	add    $0x3,%eax
   424fb:	8b 55 0c             	mov    0xc(%ebp),%edx
   424fe:	88 10                	mov    %dl,(%eax)
   42500:	8b 45 10             	mov    0x10(%ebp),%eax
   42503:	8d 50 fc             	lea    -0x4(%eax),%edx
   42506:	8b 45 f4             	mov    -0xc(%ebp),%eax
   42509:	01 d0                	add    %edx,%eax
   4250b:	8b 55 0c             	mov    0xc(%ebp),%edx
   4250e:	88 10                	mov    %dl,(%eax)
   42510:	83 7d 10 08          	cmpl   $0x8,0x10(%ebp)
   42514:	77 08                	ja     4251e <memset+0xaf>
   42516:	8b 45 08             	mov    0x8(%ebp),%eax
   42519:	e9 91 01 00 00       	jmp    426af <memset+0x240>
   4251e:	8b 45 f4             	mov    -0xc(%ebp),%eax
   42521:	f7 d8                	neg    %eax
   42523:	83 e0 03             	and    $0x3,%eax
   42526:	89 45 f0             	mov    %eax,-0x10(%ebp)
   42529:	8b 45 f0             	mov    -0x10(%ebp),%eax
   4252c:	01 45 f4             	add    %eax,-0xc(%ebp)
   4252f:	8b 45 f0             	mov    -0x10(%ebp),%eax
   42532:	29 45 10             	sub    %eax,0x10(%ebp)
   42535:	83 65 10 fc          	andl   $0xfffffffc,0x10(%ebp)
   42539:	8b 45 0c             	mov    0xc(%ebp),%eax
   4253c:	0f b6 c0             	movzbl %al,%eax
   4253f:	69 c0 01 01 01 01    	imul   $0x1010101,%eax,%eax
   42545:	89 45 ec             	mov    %eax,-0x14(%ebp)
   42548:	8b 45 f4             	mov    -0xc(%ebp),%eax
   4254b:	8b 55 ec             	mov    -0x14(%ebp),%edx
   4254e:	89 10                	mov    %edx,(%eax)
   42550:	8b 45 10             	mov    0x10(%ebp),%eax
   42553:	8d 50 fc             	lea    -0x4(%eax),%edx
   42556:	8b 45 f4             	mov    -0xc(%ebp),%eax
   42559:	01 c2                	add    %eax,%edx
   4255b:	8b 45 ec             	mov    -0x14(%ebp),%eax
   4255e:	89 02                	mov    %eax,(%edx)
   42560:	83 7d 10 08          	cmpl   $0x8,0x10(%ebp)
   42564:	77 08                	ja     4256e <memset+0xff>
   42566:	8b 45 08             	mov    0x8(%ebp),%eax
   42569:	e9 41 01 00 00       	jmp    426af <memset+0x240>
   4256e:	8b 45 f4             	mov    -0xc(%ebp),%eax
   42571:	8d 50 04             	lea    0x4(%eax),%edx
   42574:	8b 45 ec             	mov    -0x14(%ebp),%eax
   42577:	89 02                	mov    %eax,(%edx)
   42579:	8b 45 f4             	mov    -0xc(%ebp),%eax
   4257c:	8d 50 08             	lea    0x8(%eax),%edx
   4257f:	8b 45 ec             	mov    -0x14(%ebp),%eax
   42582:	89 02                	mov    %eax,(%edx)
   42584:	8b 45 10             	mov    0x10(%ebp),%eax
   42587:	8d 50 f4             	lea    -0xc(%eax),%edx
   4258a:	8b 45 f4             	mov    -0xc(%ebp),%eax
   4258d:	01 c2                	add    %eax,%edx
   4258f:	8b 45 ec             	mov    -0x14(%ebp),%eax
   42592:	89 02                	mov    %eax,(%edx)
   42594:	8b 45 10             	mov    0x10(%ebp),%eax
   42597:	8d 50 f8             	lea    -0x8(%eax),%edx
   4259a:	8b 45 f4             	mov    -0xc(%ebp),%eax
   4259d:	01 c2                	add    %eax,%edx
   4259f:	8b 45 ec             	mov    -0x14(%ebp),%eax
   425a2:	89 02                	mov    %eax,(%edx)
   425a4:	83 7d 10 18          	cmpl   $0x18,0x10(%ebp)
   425a8:	77 08                	ja     425b2 <memset+0x143>
   425aa:	8b 45 08             	mov    0x8(%ebp),%eax
   425ad:	e9 fd 00 00 00       	jmp    426af <memset+0x240>
   425b2:	8b 45 f4             	mov    -0xc(%ebp),%eax
   425b5:	8d 50 0c             	lea    0xc(%eax),%edx
   425b8:	8b 45 ec             	mov    -0x14(%ebp),%eax
   425bb:	89 02                	mov    %eax,(%edx)
   425bd:	8b 45 f4             	mov    -0xc(%ebp),%eax
   425c0:	8d 50 10             	lea    0x10(%eax),%edx
   425c3:	8b 45 ec             	mov    -0x14(%ebp),%eax
   425c6:	89 02                	mov    %eax,(%edx)
   425c8:	8b 45 f4             	mov    -0xc(%ebp),%eax
   425cb:	8d 50 14             	lea    0x14(%eax),%edx
   425ce:	8b 45 ec             	mov    -0x14(%ebp),%eax
   425d1:	89 02                	mov    %eax,(%edx)
   425d3:	8b 45 f4             	mov    -0xc(%ebp),%eax
   425d6:	8d 50 18             	lea    0x18(%eax),%edx
   425d9:	8b 45 ec             	mov    -0x14(%ebp),%eax
   425dc:	89 02                	mov    %eax,(%edx)
   425de:	8b 45 10             	mov    0x10(%ebp),%eax
   425e1:	8d 50 e4             	lea    -0x1c(%eax),%edx
   425e4:	8b 45 f4             	mov    -0xc(%ebp),%eax
   425e7:	01 c2                	add    %eax,%edx
   425e9:	8b 45 ec             	mov    -0x14(%ebp),%eax
   425ec:	89 02                	mov    %eax,(%edx)
   425ee:	8b 45 10             	mov    0x10(%ebp),%eax
   425f1:	8d 50 e8             	lea    -0x18(%eax),%edx
   425f4:	8b 45 f4             	mov    -0xc(%ebp),%eax
   425f7:	01 c2                	add    %eax,%edx
   425f9:	8b 45 ec             	mov    -0x14(%ebp),%eax
   425fc:	89 02                	mov    %eax,(%edx)
   425fe:	8b 45 10             	mov    0x10(%ebp),%eax
   42601:	8d 50 ec             	lea    -0x14(%eax),%edx
   42604:	8b 45 f4             	mov    -0xc(%ebp),%eax
   42607:	01 c2                	add    %eax,%edx
   42609:	8b 45 ec             	mov    -0x14(%ebp),%eax
   4260c:	89 02                	mov    %eax,(%edx)
   4260e:	8b 45 10             	mov    0x10(%ebp),%eax
   42611:	8d 50 f0             	lea    -0x10(%eax),%edx
   42614:	8b 45 f4             	mov    -0xc(%ebp),%eax
   42617:	01 c2                	add    %eax,%edx
   42619:	8b 45 ec             	mov    -0x14(%ebp),%eax
   4261c:	89 02                	mov    %eax,(%edx)
   4261e:	8b 45 f4             	mov    -0xc(%ebp),%eax
   42621:	83 e0 04             	and    $0x4,%eax
   42624:	83 c0 18             	add    $0x18,%eax
   42627:	89 45 f0             	mov    %eax,-0x10(%ebp)
   4262a:	8b 45 f0             	mov    -0x10(%ebp),%eax
   4262d:	01 45 f4             	add    %eax,-0xc(%ebp)
   42630:	8b 45 f0             	mov    -0x10(%ebp),%eax
   42633:	29 45 10             	sub    %eax,0x10(%ebp)
   42636:	8b 4d ec             	mov    -0x14(%ebp),%ecx
   42639:	bb 00 00 00 00       	mov    $0x0,%ebx
   4263e:	8b 45 ec             	mov    -0x14(%ebp),%eax
   42641:	ba 00 00 00 00       	mov    $0x0,%edx
   42646:	89 c2                	mov    %eax,%edx
   42648:	b8 00 00 00 00       	mov    $0x0,%eax
   4264d:	89 ce                	mov    %ecx,%esi
   4264f:	09 c6                	or     %eax,%esi
   42651:	89 75 e0             	mov    %esi,-0x20(%ebp)
   42654:	09 d3                	or     %edx,%ebx
   42656:	89 d8                	mov    %ebx,%eax
   42658:	89 45 e4             	mov    %eax,-0x1c(%ebp)
   4265b:	eb 49                	jmp    426a6 <memset+0x237>
   4265d:	8b 4d f4             	mov    -0xc(%ebp),%ecx
   42660:	8b 45 e0             	mov    -0x20(%ebp),%eax
   42663:	8b 55 e4             	mov    -0x1c(%ebp),%edx
   42666:	89 01                	mov    %eax,(%ecx)
   42668:	89 51 04             	mov    %edx,0x4(%ecx)
   4266b:	8b 45 f4             	mov    -0xc(%ebp),%eax
   4266e:	8d 48 08             	lea    0x8(%eax),%ecx
   42671:	8b 45 e0             	mov    -0x20(%ebp),%eax
   42674:	8b 55 e4             	mov    -0x1c(%ebp),%edx
   42677:	89 01                	mov    %eax,(%ecx)
   42679:	89 51 04             	mov    %edx,0x4(%ecx)
   4267c:	8b 45 f4             	mov    -0xc(%ebp),%eax
   4267f:	8d 48 10             	lea    0x10(%eax),%ecx
   42682:	8b 45 e0             	mov    -0x20(%ebp),%eax
   42685:	8b 55 e4             	mov    -0x1c(%ebp),%edx
   42688:	89 01                	mov    %eax,(%ecx)
   4268a:	89 51 04             	mov    %edx,0x4(%ecx)
   4268d:	8b 45 f4             	mov    -0xc(%ebp),%eax
   42690:	8d 48 18             	lea    0x18(%eax),%ecx
   42693:	8b 45 e0             	mov    -0x20(%ebp),%eax
   42696:	8b 55 e4             	mov    -0x1c(%ebp),%edx
   42699:	89 01                	mov    %eax,(%ecx)
   4269b:	89 51 04             	mov    %edx,0x4(%ecx)
   4269e:	83 6d 10 20          	subl   $0x20,0x10(%ebp)
   426a2:	83 45 f4 20          	addl   $0x20,-0xc(%ebp)
   426a6:	83 7d 10 1f          	cmpl   $0x1f,0x10(%ebp)
   426aa:	77 b1                	ja     4265d <memset+0x1ee>
   426ac:	8b 45 08             	mov    0x8(%ebp),%eax
   426af:	83 c4 20             	add    $0x20,%esp
   426b2:	5b                   	pop    %ebx
   426b3:	5e                   	pop    %esi
   426b4:	5d                   	pop    %ebp
   426b5:	c3                   	ret    

000426b6 <strcpy>:
   426b6:	55                   	push   %ebp
   426b7:	89 e5                	mov    %esp,%ebp
   426b9:	83 ec 10             	sub    $0x10,%esp
   426bc:	8b 55 0c             	mov    0xc(%ebp),%edx
   426bf:	8b 45 08             	mov    0x8(%ebp),%eax
   426c2:	31 d0                	xor    %edx,%eax
   426c4:	83 e0 03             	and    $0x3,%eax
   426c7:	85 c0                	test   %eax,%eax
   426c9:	0f 85 81 00 00 00    	jne    42750 <strcpy+0x9a>
   426cf:	eb 20                	jmp    426f1 <strcpy+0x3b>
   426d1:	8b 45 0c             	mov    0xc(%ebp),%eax
   426d4:	0f b6 10             	movzbl (%eax),%edx
   426d7:	8b 45 08             	mov    0x8(%ebp),%eax
   426da:	88 10                	mov    %dl,(%eax)
   426dc:	8b 45 08             	mov    0x8(%ebp),%eax
   426df:	0f b6 00             	movzbl (%eax),%eax
   426e2:	84 c0                	test   %al,%al
   426e4:	75 05                	jne    426eb <strcpy+0x35>
   426e6:	8b 45 08             	mov    0x8(%ebp),%eax
   426e9:	eb 7d                	jmp    42768 <strcpy+0xb2>
   426eb:	ff 45 0c             	incl   0xc(%ebp)
   426ee:	ff 45 08             	incl   0x8(%ebp)
   426f1:	8b 45 0c             	mov    0xc(%ebp),%eax
   426f4:	83 e0 03             	and    $0x3,%eax
   426f7:	85 c0                	test   %eax,%eax
   426f9:	75 d6                	jne    426d1 <strcpy+0x1b>
   426fb:	8b 45 08             	mov    0x8(%ebp),%eax
   426fe:	89 45 fc             	mov    %eax,-0x4(%ebp)
   42701:	8b 45 0c             	mov    0xc(%ebp),%eax
   42704:	89 45 f8             	mov    %eax,-0x8(%ebp)
   42707:	eb 16                	jmp    4271f <strcpy+0x69>
   42709:	8b 55 f8             	mov    -0x8(%ebp),%edx
   4270c:	8d 42 04             	lea    0x4(%edx),%eax
   4270f:	89 45 f8             	mov    %eax,-0x8(%ebp)
   42712:	8b 45 fc             	mov    -0x4(%ebp),%eax
   42715:	8d 48 04             	lea    0x4(%eax),%ecx
   42718:	89 4d fc             	mov    %ecx,-0x4(%ebp)
   4271b:	8b 12                	mov    (%edx),%edx
   4271d:	89 10                	mov    %edx,(%eax)
   4271f:	8b 45 f8             	mov    -0x8(%ebp),%eax
   42722:	8b 00                	mov    (%eax),%eax
   42724:	8d 90 ff fe fe fe    	lea    -0x1010101(%eax),%edx
   4272a:	8b 45 f8             	mov    -0x8(%ebp),%eax
   4272d:	8b 00                	mov    (%eax),%eax
   4272f:	f7 d0                	not    %eax
   42731:	21 d0                	and    %edx,%eax
   42733:	25 80 80 80 80       	and    $0x80808080,%eax
   42738:	85 c0                	test   %eax,%eax
   4273a:	74 cd                	je     42709 <strcpy+0x53>
   4273c:	8b 45 fc             	mov    -0x4(%ebp),%eax
   4273f:	89 45 08             	mov    %eax,0x8(%ebp)
   42742:	8b 45 f8             	mov    -0x8(%ebp),%eax
   42745:	89 45 0c             	mov    %eax,0xc(%ebp)
   42748:	eb 06                	jmp    42750 <strcpy+0x9a>
   4274a:	ff 45 0c             	incl   0xc(%ebp)
   4274d:	ff 45 08             	incl   0x8(%ebp)
   42750:	8b 45 0c             	mov    0xc(%ebp),%eax
   42753:	0f b6 10             	movzbl (%eax),%edx
   42756:	8b 45 08             	mov    0x8(%ebp),%eax
   42759:	88 10                	mov    %dl,(%eax)
   4275b:	8b 45 08             	mov    0x8(%ebp),%eax
   4275e:	0f b6 00             	movzbl (%eax),%eax
   42761:	84 c0                	test   %al,%al
   42763:	75 e5                	jne    4274a <strcpy+0x94>
   42765:	8b 45 08             	mov    0x8(%ebp),%eax
   42768:	89 ec                	mov    %ebp,%esp
   4276a:	5d                   	pop    %ebp
   4276b:	c3                   	ret    

0004276c <strcmp>:
   4276c:	55                   	push   %ebp
   4276d:	89 e5                	mov    %esp,%ebp
   4276f:	eb 06                	jmp    42777 <strcmp+0xb>
   42771:	ff 45 08             	incl   0x8(%ebp)
   42774:	ff 45 0c             	incl   0xc(%ebp)
   42777:	8b 45 08             	mov    0x8(%ebp),%eax
   4277a:	0f b6 10             	movzbl (%eax),%edx
   4277d:	8b 45 0c             	mov    0xc(%ebp),%eax
   42780:	0f b6 00             	movzbl (%eax),%eax
   42783:	38 c2                	cmp    %al,%dl
   42785:	75 0a                	jne    42791 <strcmp+0x25>
   42787:	8b 45 08             	mov    0x8(%ebp),%eax
   4278a:	0f b6 00             	movzbl (%eax),%eax
   4278d:	84 c0                	test   %al,%al
   4278f:	75 e0                	jne    42771 <strcmp+0x5>
   42791:	8b 45 08             	mov    0x8(%ebp),%eax
   42794:	0f b6 00             	movzbl (%eax),%eax
   42797:	0f b6 d0             	movzbl %al,%edx
   4279a:	8b 45 0c             	mov    0xc(%ebp),%eax
   4279d:	0f b6 00             	movzbl (%eax),%eax
   427a0:	0f b6 c8             	movzbl %al,%ecx
   427a3:	89 d0                	mov    %edx,%eax
   427a5:	29 c8                	sub    %ecx,%eax
   427a7:	5d                   	pop    %ebp
   427a8:	c3                   	ret    

000427a9 <c_syscall>:
   427a9:	55                   	push   %ebp
   427aa:	89 e5                	mov    %esp,%ebp
   427ac:	83 ec 18             	sub    $0x18,%esp
   427af:	83 7d 08 00          	cmpl   $0x0,0x8(%ebp)
   427b3:	75 12                	jne    427c7 <c_syscall+0x1e>
   427b5:	8b 45 0c             	mov    0xc(%ebp),%eax
   427b8:	8b 55 10             	mov    0x10(%ebp),%edx
   427bb:	89 54 24 04          	mov    %edx,0x4(%esp)
   427bf:	89 04 24             	mov    %eax,(%esp)
   427c2:	e8 d3 49 00 00       	call   4719a <open>
   427c7:	b8 00 00 00 00       	mov    $0x0,%eax
   427cc:	89 ec                	mov    %ebp,%esp
   427ce:	5d                   	pop    %ebp
   427cf:	c3                   	ret    

000427d0 <buff_putchar>:
   427d0:	55                   	push   %ebp
   427d1:	89 e5                	mov    %esp,%ebp
   427d3:	83 ec 0c             	sub    $0xc,%esp
   427d6:	89 5d fc             	mov    %ebx,-0x4(%ebp)
   427d9:	8b 55 10             	mov    0x10(%ebp),%edx
   427dc:	8b 45 14             	mov    0x14(%ebp),%eax
   427df:	66 89 55 f8          	mov    %dx,-0x8(%ebp)
   427e3:	66 89 45 f4          	mov    %ax,-0xc(%ebp)
   427e7:	0f b7 45 f4          	movzwl -0xc(%ebp),%eax
   427eb:	c1 e0 08             	shl    $0x8,%eax
   427ee:	0f bf d0             	movswl %ax,%edx
   427f1:	8b 45 f8             	mov    -0x8(%ebp),%eax
   427f4:	09 d0                	or     %edx,%eax
   427f6:	98                   	cwtl   
   427f7:	8b 1d e0 c6 04 00    	mov    0x4c6e0,%ebx
   427fd:	8b 0d a0 b0 04 00    	mov    0x4b0a0,%ecx
   42803:	8b 55 0c             	mov    0xc(%ebp),%edx
   42806:	0f af ca             	imul   %edx,%ecx
   42809:	8b 55 08             	mov    0x8(%ebp),%edx
   4280c:	01 ca                	add    %ecx,%edx
   4280e:	01 d2                	add    %edx,%edx
   42810:	01 da                	add    %ebx,%edx
   42812:	0f b7 c0             	movzwl %ax,%eax
   42815:	66 89 02             	mov    %ax,(%edx)
   42818:	90                   	nop
   42819:	8b 5d fc             	mov    -0x4(%ebp),%ebx
   4281c:	89 ec                	mov    %ebp,%esp
   4281e:	5d                   	pop    %ebp
   4281f:	c3                   	ret    

00042820 <set_term_colour>:
   42820:	55                   	push   %ebp
   42821:	89 e5                	mov    %esp,%ebp
   42823:	83 ec 04             	sub    $0x4,%esp
   42826:	8b 45 08             	mov    0x8(%ebp),%eax
   42829:	66 89 45 fc          	mov    %ax,-0x4(%ebp)
   4282d:	8b 45 fc             	mov    -0x4(%ebp),%eax
   42830:	66 a3 b8 b0 04 00    	mov    %ax,0x4b0b8
   42836:	90                   	nop
   42837:	89 ec                	mov    %ebp,%esp
   42839:	5d                   	pop    %ebp
   4283a:	c3                   	ret    

0004283b <putpixel>:
   4283b:	55                   	push   %ebp
   4283c:	89 e5                	mov    %esp,%ebp
   4283e:	83 ec 10             	sub    $0x10,%esp
   42841:	a1 98 c6 04 00       	mov    0x4c698,%eax
   42846:	8b 15 9c c6 04 00    	mov    0x4c69c,%edx
   4284c:	89 c1                	mov    %eax,%ecx
   4284e:	a1 a4 c6 04 00       	mov    0x4c6a4,%eax
   42853:	0f af 45 10          	imul   0x10(%ebp),%eax
   42857:	89 c2                	mov    %eax,%edx
   42859:	8b 45 0c             	mov    0xc(%ebp),%eax
   4285c:	01 c2                	add    %eax,%edx
   4285e:	0f b6 05 ac c6 04 00 	movzbl 0x4c6ac,%eax
   42865:	c0 e8 03             	shr    $0x3,%al
   42868:	0f b6 c0             	movzbl %al,%eax
   4286b:	0f af c2             	imul   %edx,%eax
   4286e:	01 c8                	add    %ecx,%eax
   42870:	89 45 f8             	mov    %eax,-0x8(%ebp)
   42873:	0f b6 05 ac c6 04 00 	movzbl 0x4c6ac,%eax
   4287a:	3c 04                	cmp    $0x4,%al
   4287c:	75 08                	jne    42886 <putpixel+0x4b>
   4287e:	8b 45 08             	mov    0x8(%ebp),%eax
   42881:	89 45 f8             	mov    %eax,-0x8(%ebp)
   42884:	eb 39                	jmp    428bf <putpixel+0x84>
   42886:	c7 45 fc 00 00 00 00 	movl   $0x0,-0x4(%ebp)
   4288d:	eb 1e                	jmp    428ad <putpixel+0x72>
   4288f:	8b 45 fc             	mov    -0x4(%ebp),%eax
   42892:	c1 e0 03             	shl    $0x3,%eax
   42895:	8b 55 08             	mov    0x8(%ebp),%edx
   42898:	88 c1                	mov    %al,%cl
   4289a:	d3 ea                	shr    %cl,%edx
   4289c:	89 d1                	mov    %edx,%ecx
   4289e:	8b 55 f8             	mov    -0x8(%ebp),%edx
   428a1:	8b 45 fc             	mov    -0x4(%ebp),%eax
   428a4:	01 d0                	add    %edx,%eax
   428a6:	88 ca                	mov    %cl,%dl
   428a8:	88 10                	mov    %dl,(%eax)
   428aa:	ff 45 fc             	incl   -0x4(%ebp)
   428ad:	0f b6 05 ac c6 04 00 	movzbl 0x4c6ac,%eax
   428b4:	c0 e8 03             	shr    $0x3,%al
   428b7:	0f b6 c0             	movzbl %al,%eax
   428ba:	39 45 fc             	cmp    %eax,-0x4(%ebp)
   428bd:	72 d0                	jb     4288f <putpixel+0x54>
   428bf:	90                   	nop
   428c0:	89 ec                	mov    %ebp,%esp
   428c2:	5d                   	pop    %ebp
   428c3:	c3                   	ret    

000428c4 <drawchar>:
   428c4:	55                   	push   %ebp
   428c5:	89 e5                	mov    %esp,%ebp
   428c7:	83 ec 50             	sub    $0x50,%esp
   428ca:	89 5d fc             	mov    %ebx,-0x4(%ebp)
   428cd:	8b 45 08             	mov    0x8(%ebp),%eax
   428d0:	88 45 c4             	mov    %al,-0x3c(%ebp)
   428d3:	b8 20 00 00 00       	mov    $0x20,%eax
   428d8:	83 e0 fc             	and    $0xfffffffc,%eax
   428db:	89 c1                	mov    %eax,%ecx
   428dd:	b8 00 00 00 00       	mov    $0x0,%eax
   428e2:	8b 90 c0 d0 04 00    	mov    0x4d0c0(%eax),%edx
   428e8:	89 54 05 cc          	mov    %edx,-0x34(%ebp,%eax,1)
   428ec:	83 c0 04             	add    $0x4,%eax
   428ef:	39 c8                	cmp    %ecx,%eax
   428f1:	72 ef                	jb     428e2 <drawchar+0x1e>
   428f3:	0f b6 45 c4          	movzbl -0x3c(%ebp),%eax
   428f7:	c1 e0 04             	shl    $0x4,%eax
   428fa:	05 a0 90 04 00       	add    $0x490a0,%eax
   428ff:	89 45 ec             	mov    %eax,-0x14(%ebp)
   42902:	80 7d c4 00          	cmpb   $0x0,-0x3c(%ebp)
   42906:	74 6f                	je     42977 <drawchar+0xb3>
   42908:	c7 45 f0 00 00 00 00 	movl   $0x0,-0x10(%ebp)
   4290f:	eb 5e                	jmp    4296f <drawchar+0xab>
   42911:	c7 45 f4 00 00 00 00 	movl   $0x0,-0xc(%ebp)
   42918:	eb 4c                	jmp    42966 <drawchar+0xa2>
   4291a:	8b 55 10             	mov    0x10(%ebp),%edx
   4291d:	8b 45 f0             	mov    -0x10(%ebp),%eax
   42920:	8d 0c 02             	lea    (%edx,%eax,1),%ecx
   42923:	8b 55 0c             	mov    0xc(%ebp),%edx
   42926:	8b 45 f4             	mov    -0xc(%ebp),%eax
   42929:	01 c2                	add    %eax,%edx
   4292b:	8b 5d ec             	mov    -0x14(%ebp),%ebx
   4292e:	8b 45 f0             	mov    -0x10(%ebp),%eax
   42931:	01 d8                	add    %ebx,%eax
   42933:	0f b6 00             	movzbl (%eax),%eax
   42936:	0f b6 d8             	movzbl %al,%ebx
   42939:	b8 07 00 00 00       	mov    $0x7,%eax
   4293e:	2b 45 f4             	sub    -0xc(%ebp),%eax
   42941:	8b 44 85 cc          	mov    -0x34(%ebp,%eax,4),%eax
   42945:	21 d8                	and    %ebx,%eax
   42947:	85 c0                	test   %eax,%eax
   42949:	74 05                	je     42950 <drawchar+0x8c>
   4294b:	8b 45 14             	mov    0x14(%ebp),%eax
   4294e:	eb 03                	jmp    42953 <drawchar+0x8f>
   42950:	8b 45 18             	mov    0x18(%ebp),%eax
   42953:	89 4c 24 08          	mov    %ecx,0x8(%esp)
   42957:	89 54 24 04          	mov    %edx,0x4(%esp)
   4295b:	89 04 24             	mov    %eax,(%esp)
   4295e:	e8 d8 fe ff ff       	call   4283b <putpixel>
   42963:	ff 45 f4             	incl   -0xc(%ebp)
   42966:	83 7d f4 07          	cmpl   $0x7,-0xc(%ebp)
   4296a:	76 ae                	jbe    4291a <drawchar+0x56>
   4296c:	ff 45 f0             	incl   -0x10(%ebp)
   4296f:	83 7d f0 0f          	cmpl   $0xf,-0x10(%ebp)
   42973:	76 9c                	jbe    42911 <drawchar+0x4d>
   42975:	eb 48                	jmp    429bf <drawchar+0xfb>
   42977:	c7 45 f0 00 00 00 00 	movl   $0x0,-0x10(%ebp)
   4297e:	eb 39                	jmp    429b9 <drawchar+0xf5>
   42980:	c7 45 f4 00 00 00 00 	movl   $0x0,-0xc(%ebp)
   42987:	eb 27                	jmp    429b0 <drawchar+0xec>
   42989:	8b 55 10             	mov    0x10(%ebp),%edx
   4298c:	8b 45 f0             	mov    -0x10(%ebp),%eax
   4298f:	8d 0c 02             	lea    (%edx,%eax,1),%ecx
   42992:	8b 55 0c             	mov    0xc(%ebp),%edx
   42995:	8b 45 f4             	mov    -0xc(%ebp),%eax
   42998:	01 c2                	add    %eax,%edx
   4299a:	8b 45 18             	mov    0x18(%ebp),%eax
   4299d:	89 4c 24 08          	mov    %ecx,0x8(%esp)
   429a1:	89 54 24 04          	mov    %edx,0x4(%esp)
   429a5:	89 04 24             	mov    %eax,(%esp)
   429a8:	e8 8e fe ff ff       	call   4283b <putpixel>
   429ad:	ff 45 f4             	incl   -0xc(%ebp)
   429b0:	83 7d f4 07          	cmpl   $0x7,-0xc(%ebp)
   429b4:	76 d3                	jbe    42989 <drawchar+0xc5>
   429b6:	ff 45 f0             	incl   -0x10(%ebp)
   429b9:	83 7d f0 0f          	cmpl   $0xf,-0x10(%ebp)
   429bd:	76 c1                	jbe    42980 <drawchar+0xbc>
   429bf:	90                   	nop
   429c0:	8b 5d fc             	mov    -0x4(%ebp),%ebx
   429c3:	89 ec                	mov    %ebp,%esp
   429c5:	5d                   	pop    %ebp
   429c6:	c3                   	ret    

000429c7 <buf_flush>:
   429c7:	55                   	push   %ebp
   429c8:	89 e5                	mov    %esp,%ebp
   429ca:	57                   	push   %edi
   429cb:	56                   	push   %esi
   429cc:	53                   	push   %ebx
   429cd:	83 ec 2c             	sub    $0x2c,%esp
   429d0:	a1 b4 b0 04 00       	mov    0x4b0b4,%eax
   429d5:	85 c0                	test   %eax,%eax
   429d7:	0f 84 b2 01 00 00    	je     42b8f <buf_flush+0x1c8>
   429dd:	a1 98 c6 04 00       	mov    0x4c698,%eax
   429e2:	8b 15 9c c6 04 00    	mov    0x4c69c,%edx
   429e8:	89 45 e0             	mov    %eax,-0x20(%ebp)
   429eb:	0f b6 05 ad c6 04 00 	movzbl 0x4c6ad,%eax
   429f2:	3c 02                	cmp    $0x2,%al
   429f4:	75 49                	jne    42a3f <buf_flush+0x78>
   429f6:	c7 45 ec 00 00 00 00 	movl   $0x0,-0x14(%ebp)
   429fd:	eb 21                	jmp    42a20 <buf_flush+0x59>
   429ff:	8b 15 e0 c6 04 00    	mov    0x4c6e0,%edx
   42a05:	8b 45 ec             	mov    -0x14(%ebp),%eax
   42a08:	01 c0                	add    %eax,%eax
   42a0a:	01 d0                	add    %edx,%eax
   42a0c:	8b 55 ec             	mov    -0x14(%ebp),%edx
   42a0f:	8d 0c 12             	lea    (%edx,%edx,1),%ecx
   42a12:	8b 55 e0             	mov    -0x20(%ebp),%edx
   42a15:	01 ca                	add    %ecx,%edx
   42a17:	0f b7 00             	movzwl (%eax),%eax
   42a1a:	66 89 02             	mov    %ax,(%edx)
   42a1d:	ff 45 ec             	incl   -0x14(%ebp)
   42a20:	8b 15 ec c6 04 00    	mov    0x4c6ec,%edx
   42a26:	a1 a0 b0 04 00       	mov    0x4b0a0,%eax
   42a2b:	0f af d0             	imul   %eax,%edx
   42a2e:	a1 e8 c6 04 00       	mov    0x4c6e8,%eax
   42a33:	01 d0                	add    %edx,%eax
   42a35:	39 45 ec             	cmp    %eax,-0x14(%ebp)
   42a38:	72 c5                	jb     429ff <buf_flush+0x38>
   42a3a:	e9 50 01 00 00       	jmp    42b8f <buf_flush+0x1c8>
   42a3f:	c7 45 e8 00 00 00 00 	movl   $0x0,-0x18(%ebp)
   42a46:	e9 36 01 00 00       	jmp    42b81 <buf_flush+0x1ba>
   42a4b:	c7 45 e4 00 00 00 00 	movl   $0x0,-0x1c(%ebp)
   42a52:	e9 0e 01 00 00       	jmp    42b65 <buf_flush+0x19e>
   42a57:	8b 15 e4 c6 04 00    	mov    0x4c6e4,%edx
   42a5d:	8b 45 e8             	mov    -0x18(%ebp),%eax
   42a60:	01 c0                	add    %eax,%eax
   42a62:	01 d0                	add    %edx,%eax
   42a64:	0f b7 00             	movzwl (%eax),%eax
   42a67:	39 45 e4             	cmp    %eax,-0x1c(%ebp)
   42a6a:	76 69                	jbe    42ad5 <buf_flush+0x10e>
   42a6c:	a1 a0 b0 04 00       	mov    0x4b0a0,%eax
   42a71:	39 45 e4             	cmp    %eax,-0x1c(%ebp)
   42a74:	73 5f                	jae    42ad5 <buf_flush+0x10e>
   42a76:	8b 15 e0 c6 04 00    	mov    0x4c6e0,%edx
   42a7c:	a1 a0 b0 04 00       	mov    0x4b0a0,%eax
   42a81:	0f af 45 e8          	imul   -0x18(%ebp),%eax
   42a85:	89 c1                	mov    %eax,%ecx
   42a87:	8b 45 e4             	mov    -0x1c(%ebp),%eax
   42a8a:	01 c8                	add    %ecx,%eax
   42a8c:	01 c0                	add    %eax,%eax
   42a8e:	01 d0                	add    %edx,%eax
   42a90:	0f b7 00             	movzwl (%eax),%eax
   42a93:	c1 e8 08             	shr    $0x8,%eax
   42a96:	0f b7 c0             	movzwl %ax,%eax
   42a99:	8b 04 85 60 b0 04 00 	mov    0x4b060(,%eax,4),%eax
   42aa0:	89 c1                	mov    %eax,%ecx
   42aa2:	8b 45 e8             	mov    -0x18(%ebp),%eax
   42aa5:	c1 e0 04             	shl    $0x4,%eax
   42aa8:	89 c2                	mov    %eax,%edx
   42aaa:	8b 45 e4             	mov    -0x1c(%ebp),%eax
   42aad:	c1 e0 03             	shl    $0x3,%eax
   42ab0:	c7 44 24 10 00 00 00 	movl   $0x0,0x10(%esp)
   42ab7:	00 
   42ab8:	89 4c 24 0c          	mov    %ecx,0xc(%esp)
   42abc:	89 54 24 08          	mov    %edx,0x8(%esp)
   42ac0:	89 44 24 04          	mov    %eax,0x4(%esp)
   42ac4:	c7 04 24 00 00 00 00 	movl   $0x0,(%esp)
   42acb:	e8 f4 fd ff ff       	call   428c4 <drawchar>
   42ad0:	e9 8d 00 00 00       	jmp    42b62 <buf_flush+0x19b>
   42ad5:	8b 15 e4 c6 04 00    	mov    0x4c6e4,%edx
   42adb:	8b 45 e8             	mov    -0x18(%ebp),%eax
   42ade:	01 c0                	add    %eax,%eax
   42ae0:	01 d0                	add    %edx,%eax
   42ae2:	0f b7 00             	movzwl (%eax),%eax
   42ae5:	39 45 e4             	cmp    %eax,-0x1c(%ebp)
   42ae8:	77 78                	ja     42b62 <buf_flush+0x19b>
   42aea:	8b 15 e0 c6 04 00    	mov    0x4c6e0,%edx
   42af0:	a1 a0 b0 04 00       	mov    0x4b0a0,%eax
   42af5:	0f af 45 e8          	imul   -0x18(%ebp),%eax
   42af9:	89 c1                	mov    %eax,%ecx
   42afb:	8b 45 e4             	mov    -0x1c(%ebp),%eax
   42afe:	01 c8                	add    %ecx,%eax
   42b00:	01 c0                	add    %eax,%eax
   42b02:	01 d0                	add    %edx,%eax
   42b04:	0f b7 00             	movzwl (%eax),%eax
   42b07:	c1 e8 08             	shr    $0x8,%eax
   42b0a:	0f b7 c0             	movzwl %ax,%eax
   42b0d:	8b 04 85 60 b0 04 00 	mov    0x4b060(,%eax,4),%eax
   42b14:	89 c3                	mov    %eax,%ebx
   42b16:	8b 45 e8             	mov    -0x18(%ebp),%eax
   42b19:	c1 e0 04             	shl    $0x4,%eax
   42b1c:	89 c1                	mov    %eax,%ecx
   42b1e:	8b 45 e4             	mov    -0x1c(%ebp),%eax
   42b21:	c1 e0 03             	shl    $0x3,%eax
   42b24:	89 c2                	mov    %eax,%edx
   42b26:	8b 35 e0 c6 04 00    	mov    0x4c6e0,%esi
   42b2c:	a1 a0 b0 04 00       	mov    0x4b0a0,%eax
   42b31:	0f af 45 e8          	imul   -0x18(%ebp),%eax
   42b35:	89 c7                	mov    %eax,%edi
   42b37:	8b 45 e4             	mov    -0x1c(%ebp),%eax
   42b3a:	01 f8                	add    %edi,%eax
   42b3c:	01 c0                	add    %eax,%eax
   42b3e:	01 f0                	add    %esi,%eax
   42b40:	0f b7 00             	movzwl (%eax),%eax
   42b43:	0f b6 c0             	movzbl %al,%eax
   42b46:	c7 44 24 10 00 00 00 	movl   $0x0,0x10(%esp)
   42b4d:	00 
   42b4e:	89 5c 24 0c          	mov    %ebx,0xc(%esp)
   42b52:	89 4c 24 08          	mov    %ecx,0x8(%esp)
   42b56:	89 54 24 04          	mov    %edx,0x4(%esp)
   42b5a:	89 04 24             	mov    %eax,(%esp)
   42b5d:	e8 62 fd ff ff       	call   428c4 <drawchar>
   42b62:	ff 45 e4             	incl   -0x1c(%ebp)
   42b65:	8b 15 e4 c6 04 00    	mov    0x4c6e4,%edx
   42b6b:	8b 45 e8             	mov    -0x18(%ebp),%eax
   42b6e:	01 c0                	add    %eax,%eax
   42b70:	01 d0                	add    %edx,%eax
   42b72:	0f b7 00             	movzwl (%eax),%eax
   42b75:	39 45 e4             	cmp    %eax,-0x1c(%ebp)
   42b78:	0f 86 d9 fe ff ff    	jbe    42a57 <buf_flush+0x90>
   42b7e:	ff 45 e8             	incl   -0x18(%ebp)
   42b81:	a1 ec c6 04 00       	mov    0x4c6ec,%eax
   42b86:	39 45 e8             	cmp    %eax,-0x18(%ebp)
   42b89:	0f 86 bc fe ff ff    	jbe    42a4b <buf_flush+0x84>
   42b8f:	90                   	nop
   42b90:	83 c4 2c             	add    $0x2c,%esp
   42b93:	5b                   	pop    %ebx
   42b94:	5e                   	pop    %esi
   42b95:	5f                   	pop    %edi
   42b96:	5d                   	pop    %ebp
   42b97:	c3                   	ret    

00042b98 <text_scroll>:
   42b98:	55                   	push   %ebp
   42b99:	89 e5                	mov    %esp,%ebp
   42b9b:	83 ec 28             	sub    $0x28,%esp
   42b9e:	89 5d fc             	mov    %ebx,-0x4(%ebp)
   42ba1:	a1 ec c6 04 00       	mov    0x4c6ec,%eax
   42ba6:	85 c0                	test   %eax,%eax
   42ba8:	74 74                	je     42c1e <text_scroll+0x86>
   42baa:	c7 45 f4 00 00 00 00 	movl   $0x0,-0xc(%ebp)
   42bb1:	eb 56                	jmp    42c09 <text_scroll+0x71>
   42bb3:	c7 45 f0 00 00 00 00 	movl   $0x0,-0x10(%ebp)
   42bba:	eb 40                	jmp    42bfc <text_scroll+0x64>
   42bbc:	8b 0d e0 c6 04 00    	mov    0x4c6e0,%ecx
   42bc2:	8b 45 f0             	mov    -0x10(%ebp),%eax
   42bc5:	8d 50 01             	lea    0x1(%eax),%edx
   42bc8:	a1 a0 b0 04 00       	mov    0x4b0a0,%eax
   42bcd:	0f af d0             	imul   %eax,%edx
   42bd0:	8b 45 f4             	mov    -0xc(%ebp),%eax
   42bd3:	01 d0                	add    %edx,%eax
   42bd5:	01 c0                	add    %eax,%eax
   42bd7:	01 c1                	add    %eax,%ecx
   42bd9:	8b 15 e0 c6 04 00    	mov    0x4c6e0,%edx
   42bdf:	a1 a0 b0 04 00       	mov    0x4b0a0,%eax
   42be4:	0f af 45 f0          	imul   -0x10(%ebp),%eax
   42be8:	89 c3                	mov    %eax,%ebx
   42bea:	8b 45 f4             	mov    -0xc(%ebp),%eax
   42bed:	01 d8                	add    %ebx,%eax
   42bef:	01 c0                	add    %eax,%eax
   42bf1:	01 c2                	add    %eax,%edx
   42bf3:	0f b7 01             	movzwl (%ecx),%eax
   42bf6:	66 89 02             	mov    %ax,(%edx)
   42bf9:	ff 45 f0             	incl   -0x10(%ebp)
   42bfc:	a1 a4 b0 04 00       	mov    0x4b0a4,%eax
   42c01:	39 45 f0             	cmp    %eax,-0x10(%ebp)
   42c04:	72 b6                	jb     42bbc <text_scroll+0x24>
   42c06:	ff 45 f4             	incl   -0xc(%ebp)
   42c09:	a1 a0 b0 04 00       	mov    0x4b0a0,%eax
   42c0e:	39 45 f4             	cmp    %eax,-0xc(%ebp)
   42c11:	72 a0                	jb     42bb3 <text_scroll+0x1b>
   42c13:	a1 ec c6 04 00       	mov    0x4c6ec,%eax
   42c18:	48                   	dec    %eax
   42c19:	a3 ec c6 04 00       	mov    %eax,0x4c6ec
   42c1e:	a1 a4 b0 04 00       	mov    0x4b0a4,%eax
   42c23:	8d 0c 00             	lea    (%eax,%eax,1),%ecx
   42c26:	a1 e4 c6 04 00       	mov    0x4c6e4,%eax
   42c2b:	8d 50 04             	lea    0x4(%eax),%edx
   42c2e:	a1 e4 c6 04 00       	mov    0x4c6e4,%eax
   42c33:	89 4c 24 08          	mov    %ecx,0x8(%esp)
   42c37:	89 54 24 04          	mov    %edx,0x4(%esp)
   42c3b:	89 04 24             	mov    %eax,(%esp)
   42c3e:	e8 0e f1 ff ff       	call   41d51 <memcpy>
   42c43:	c7 45 ec 00 00 00 00 	movl   $0x0,-0x14(%ebp)
   42c4a:	eb 27                	jmp    42c73 <text_scroll+0xdb>
   42c4c:	8b 0d e0 c6 04 00    	mov    0x4c6e0,%ecx
   42c52:	a1 a4 b0 04 00       	mov    0x4b0a4,%eax
   42c57:	8d 50 ff             	lea    -0x1(%eax),%edx
   42c5a:	a1 a0 b0 04 00       	mov    0x4b0a0,%eax
   42c5f:	0f af d0             	imul   %eax,%edx
   42c62:	8b 45 ec             	mov    -0x14(%ebp),%eax
   42c65:	01 d0                	add    %edx,%eax
   42c67:	01 c0                	add    %eax,%eax
   42c69:	01 c8                	add    %ecx,%eax
   42c6b:	66 c7 00 00 00       	movw   $0x0,(%eax)
   42c70:	ff 45 ec             	incl   -0x14(%ebp)
   42c73:	a1 a0 b0 04 00       	mov    0x4b0a0,%eax
   42c78:	39 45 ec             	cmp    %eax,-0x14(%ebp)
   42c7b:	72 cf                	jb     42c4c <text_scroll+0xb4>
   42c7d:	a1 a0 b0 04 00       	mov    0x4b0a0,%eax
   42c82:	0f b7 c0             	movzwl %ax,%eax
   42c85:	8b 0d e4 c6 04 00    	mov    0x4c6e4,%ecx
   42c8b:	8b 15 a4 b0 04 00    	mov    0x4b0a4,%edx
   42c91:	81 c2 ff ff ff 7f    	add    $0x7fffffff,%edx
   42c97:	01 d2                	add    %edx,%edx
   42c99:	01 ca                	add    %ecx,%edx
   42c9b:	48                   	dec    %eax
   42c9c:	0f b7 c0             	movzwl %ax,%eax
   42c9f:	66 89 02             	mov    %ax,(%edx)
   42ca2:	e8 20 fd ff ff       	call   429c7 <buf_flush>
   42ca7:	8b 15 e4 c6 04 00    	mov    0x4c6e4,%edx
   42cad:	a1 a4 b0 04 00       	mov    0x4b0a4,%eax
   42cb2:	05 ff ff ff 7f       	add    $0x7fffffff,%eax
   42cb7:	01 c0                	add    %eax,%eax
   42cb9:	01 d0                	add    %edx,%eax
   42cbb:	66 c7 00 00 00       	movw   $0x0,(%eax)
   42cc0:	a1 ec c6 04 00       	mov    0x4c6ec,%eax
   42cc5:	89 c2                	mov    %eax,%edx
   42cc7:	a1 e8 c6 04 00       	mov    0x4c6e8,%eax
   42ccc:	89 54 24 04          	mov    %edx,0x4(%esp)
   42cd0:	89 04 24             	mov    %eax,(%esp)
   42cd3:	e8 dc 03 00 00       	call   430b4 <move_cursor>
   42cd8:	90                   	nop
   42cd9:	8b 5d fc             	mov    -0x4(%ebp),%ebx
   42cdc:	89 ec                	mov    %ebp,%esp
   42cde:	5d                   	pop    %ebp
   42cdf:	c3                   	ret    

00042ce0 <putstring>:
   42ce0:	55                   	push   %ebp
   42ce1:	89 e5                	mov    %esp,%ebp
   42ce3:	83 ec 18             	sub    $0x18,%esp
   42ce6:	89 5d fc             	mov    %ebx,-0x4(%ebp)
   42ce9:	8b 45 08             	mov    0x8(%ebp),%eax
   42cec:	0f b6 00             	movzbl (%eax),%eax
   42cef:	3c 0a                	cmp    $0xa,%al
   42cf1:	75 4d                	jne    42d40 <putstring+0x60>
   42cf3:	a1 e8 c6 04 00       	mov    0x4c6e8,%eax
   42cf8:	8b 0d e4 c6 04 00    	mov    0x4c6e4,%ecx
   42cfe:	8b 15 ec c6 04 00    	mov    0x4c6ec,%edx
   42d04:	01 d2                	add    %edx,%edx
   42d06:	01 ca                	add    %ecx,%edx
   42d08:	0f b7 c0             	movzwl %ax,%eax
   42d0b:	66 89 02             	mov    %ax,(%edx)
   42d0e:	a1 ec c6 04 00       	mov    0x4c6ec,%eax
   42d13:	40                   	inc    %eax
   42d14:	a3 ec c6 04 00       	mov    %eax,0x4c6ec
   42d19:	c7 05 e8 c6 04 00 00 	movl   $0x0,0x4c6e8
   42d20:	00 00 00 
   42d23:	8b 15 ec c6 04 00    	mov    0x4c6ec,%edx
   42d29:	a1 a4 b0 04 00       	mov    0x4b0a4,%eax
   42d2e:	39 c2                	cmp    %eax,%edx
   42d30:	0f 82 c7 00 00 00    	jb     42dfd <putstring+0x11d>
   42d36:	e8 5d fe ff ff       	call   42b98 <text_scroll>
   42d3b:	e9 bd 00 00 00       	jmp    42dfd <putstring+0x11d>
   42d40:	0f b7 05 b8 b0 04 00 	movzwl 0x4b0b8,%eax
   42d47:	89 c3                	mov    %eax,%ebx
   42d49:	8b 45 08             	mov    0x8(%ebp),%eax
   42d4c:	0f b6 00             	movzbl (%eax),%eax
   42d4f:	0f be c0             	movsbl %al,%eax
   42d52:	8b 15 ec c6 04 00    	mov    0x4c6ec,%edx
   42d58:	89 d1                	mov    %edx,%ecx
   42d5a:	8b 15 e8 c6 04 00    	mov    0x4c6e8,%edx
   42d60:	89 5c 24 0c          	mov    %ebx,0xc(%esp)
   42d64:	89 44 24 08          	mov    %eax,0x8(%esp)
   42d68:	89 4c 24 04          	mov    %ecx,0x4(%esp)
   42d6c:	89 14 24             	mov    %edx,(%esp)
   42d6f:	e8 5c fa ff ff       	call   427d0 <buff_putchar>
   42d74:	a1 e8 c6 04 00       	mov    0x4c6e8,%eax
   42d79:	40                   	inc    %eax
   42d7a:	a3 e8 c6 04 00       	mov    %eax,0x4c6e8
   42d7f:	8b 15 e4 c6 04 00    	mov    0x4c6e4,%edx
   42d85:	a1 ec c6 04 00       	mov    0x4c6ec,%eax
   42d8a:	01 c0                	add    %eax,%eax
   42d8c:	01 d0                	add    %edx,%eax
   42d8e:	0f b7 10             	movzwl (%eax),%edx
   42d91:	42                   	inc    %edx
   42d92:	0f b7 d2             	movzwl %dx,%edx
   42d95:	66 89 10             	mov    %dx,(%eax)
   42d98:	8b 15 e8 c6 04 00    	mov    0x4c6e8,%edx
   42d9e:	a1 a0 b0 04 00       	mov    0x4b0a0,%eax
   42da3:	39 c2                	cmp    %eax,%edx
   42da5:	75 56                	jne    42dfd <putstring+0x11d>
   42da7:	8b 15 e4 c6 04 00    	mov    0x4c6e4,%edx
   42dad:	a1 ec c6 04 00       	mov    0x4c6ec,%eax
   42db2:	01 c0                	add    %eax,%eax
   42db4:	01 d0                	add    %edx,%eax
   42db6:	0f b7 10             	movzwl (%eax),%edx
   42db9:	4a                   	dec    %edx
   42dba:	0f b7 d2             	movzwl %dx,%edx
   42dbd:	66 89 10             	mov    %dx,(%eax)
   42dc0:	a1 ec c6 04 00       	mov    0x4c6ec,%eax
   42dc5:	40                   	inc    %eax
   42dc6:	a3 ec c6 04 00       	mov    %eax,0x4c6ec
   42dcb:	8b 15 e4 c6 04 00    	mov    0x4c6e4,%edx
   42dd1:	a1 ec c6 04 00       	mov    0x4c6ec,%eax
   42dd6:	01 c0                	add    %eax,%eax
   42dd8:	01 d0                	add    %edx,%eax
   42dda:	66 c7 00 00 00       	movw   $0x0,(%eax)
   42ddf:	c7 05 e8 c6 04 00 00 	movl   $0x0,0x4c6e8
   42de6:	00 00 00 
   42de9:	8b 15 ec c6 04 00    	mov    0x4c6ec,%edx
   42def:	a1 a4 b0 04 00       	mov    0x4b0a4,%eax
   42df4:	39 c2                	cmp    %eax,%edx
   42df6:	72 05                	jb     42dfd <putstring+0x11d>
   42df8:	e8 9b fd ff ff       	call   42b98 <text_scroll>
   42dfd:	ff 45 08             	incl   0x8(%ebp)
   42e00:	8b 45 08             	mov    0x8(%ebp),%eax
   42e03:	0f b6 00             	movzbl (%eax),%eax
   42e06:	84 c0                	test   %al,%al
   42e08:	0f 85 db fe ff ff    	jne    42ce9 <putstring+0x9>
   42e0e:	e8 b4 fb ff ff       	call   429c7 <buf_flush>
   42e13:	a1 ec c6 04 00       	mov    0x4c6ec,%eax
   42e18:	89 c2                	mov    %eax,%edx
   42e1a:	a1 e8 c6 04 00       	mov    0x4c6e8,%eax
   42e1f:	89 54 24 04          	mov    %edx,0x4(%esp)
   42e23:	89 04 24             	mov    %eax,(%esp)
   42e26:	e8 89 02 00 00       	call   430b4 <move_cursor>
   42e2b:	90                   	nop
   42e2c:	8b 5d fc             	mov    -0x4(%ebp),%ebx
   42e2f:	89 ec                	mov    %ebp,%esp
   42e31:	5d                   	pop    %ebp
   42e32:	c3                   	ret    

00042e33 <putstring_xy>:
   42e33:	55                   	push   %ebp
   42e34:	89 e5                	mov    %esp,%ebp
   42e36:	83 ec 28             	sub    $0x28,%esp
   42e39:	89 5d fc             	mov    %ebx,-0x4(%ebp)
   42e3c:	8b 45 0c             	mov    0xc(%ebp),%eax
   42e3f:	c1 e8 03             	shr    $0x3,%eax
   42e42:	89 45 0c             	mov    %eax,0xc(%ebp)
   42e45:	8b 45 10             	mov    0x10(%ebp),%eax
   42e48:	c1 e8 04             	shr    $0x4,%eax
   42e4b:	89 45 10             	mov    %eax,0x10(%ebp)
   42e4e:	8b 45 0c             	mov    0xc(%ebp),%eax
   42e51:	89 45 f4             	mov    %eax,-0xc(%ebp)
   42e54:	8b 45 08             	mov    0x8(%ebp),%eax
   42e57:	0f b6 00             	movzbl (%eax),%eax
   42e5a:	3c 0a                	cmp    $0xa,%al
   42e5c:	75 0b                	jne    42e69 <putstring_xy+0x36>
   42e5e:	ff 45 10             	incl   0x10(%ebp)
   42e61:	8b 45 f4             	mov    -0xc(%ebp),%eax
   42e64:	89 45 0c             	mov    %eax,0xc(%ebp)
   42e67:	eb 41                	jmp    42eaa <putstring_xy+0x77>
   42e69:	8b 45 14             	mov    0x14(%ebp),%eax
   42e6c:	0f b7 c0             	movzwl %ax,%eax
   42e6f:	89 c3                	mov    %eax,%ebx
   42e71:	8b 45 08             	mov    0x8(%ebp),%eax
   42e74:	0f b6 00             	movzbl (%eax),%eax
   42e77:	0f be c8             	movsbl %al,%ecx
   42e7a:	8b 55 10             	mov    0x10(%ebp),%edx
   42e7d:	8b 45 0c             	mov    0xc(%ebp),%eax
   42e80:	89 5c 24 0c          	mov    %ebx,0xc(%esp)
   42e84:	89 4c 24 08          	mov    %ecx,0x8(%esp)
   42e88:	89 54 24 04          	mov    %edx,0x4(%esp)
   42e8c:	89 04 24             	mov    %eax,(%esp)
   42e8f:	e8 3c f9 ff ff       	call   427d0 <buff_putchar>
   42e94:	ff 45 0c             	incl   0xc(%ebp)
   42e97:	a1 a0 b0 04 00       	mov    0x4b0a0,%eax
   42e9c:	39 45 0c             	cmp    %eax,0xc(%ebp)
   42e9f:	75 09                	jne    42eaa <putstring_xy+0x77>
   42ea1:	ff 45 10             	incl   0x10(%ebp)
   42ea4:	8b 45 f4             	mov    -0xc(%ebp),%eax
   42ea7:	89 45 0c             	mov    %eax,0xc(%ebp)
   42eaa:	ff 45 08             	incl   0x8(%ebp)
   42ead:	8b 45 08             	mov    0x8(%ebp),%eax
   42eb0:	0f b6 00             	movzbl (%eax),%eax
   42eb3:	84 c0                	test   %al,%al
   42eb5:	75 9d                	jne    42e54 <putstring_xy+0x21>
   42eb7:	8b 45 10             	mov    0x10(%ebp),%eax
   42eba:	a3 ec c6 04 00       	mov    %eax,0x4c6ec
   42ebf:	8b 15 e4 c6 04 00    	mov    0x4c6e4,%edx
   42ec5:	8b 45 10             	mov    0x10(%ebp),%eax
   42ec8:	01 c0                	add    %eax,%eax
   42eca:	01 c2                	add    %eax,%edx
   42ecc:	8b 45 0c             	mov    0xc(%ebp),%eax
   42ecf:	0f b7 c0             	movzwl %ax,%eax
   42ed2:	66 89 02             	mov    %ax,(%edx)
   42ed5:	e8 ed fa ff ff       	call   429c7 <buf_flush>
   42eda:	90                   	nop
   42edb:	8b 5d fc             	mov    -0x4(%ebp),%ebx
   42ede:	89 ec                	mov    %ebp,%esp
   42ee0:	5d                   	pop    %ebp
   42ee1:	c3                   	ret    

00042ee2 <reverse>:
   42ee2:	55                   	push   %ebp
   42ee3:	89 e5                	mov    %esp,%ebp
   42ee5:	83 ec 28             	sub    $0x28,%esp
   42ee8:	c7 45 f4 00 00 00 00 	movl   $0x0,-0xc(%ebp)
   42eef:	8b 45 08             	mov    0x8(%ebp),%eax
   42ef2:	89 04 24             	mov    %eax,(%esp)
   42ef5:	e8 2f ee ff ff       	call   41d29 <strlen>
   42efa:	48                   	dec    %eax
   42efb:	89 45 f0             	mov    %eax,-0x10(%ebp)
   42efe:	eb 37                	jmp    42f37 <reverse+0x55>
   42f00:	8b 55 f4             	mov    -0xc(%ebp),%edx
   42f03:	8b 45 08             	mov    0x8(%ebp),%eax
   42f06:	01 d0                	add    %edx,%eax
   42f08:	0f b6 00             	movzbl (%eax),%eax
   42f0b:	88 45 ef             	mov    %al,-0x11(%ebp)
   42f0e:	8b 55 f0             	mov    -0x10(%ebp),%edx
   42f11:	8b 45 08             	mov    0x8(%ebp),%eax
   42f14:	01 c2                	add    %eax,%edx
   42f16:	8b 4d f4             	mov    -0xc(%ebp),%ecx
   42f19:	8b 45 08             	mov    0x8(%ebp),%eax
   42f1c:	01 c8                	add    %ecx,%eax
   42f1e:	0f b6 12             	movzbl (%edx),%edx
   42f21:	88 10                	mov    %dl,(%eax)
   42f23:	8b 55 f0             	mov    -0x10(%ebp),%edx
   42f26:	8b 45 08             	mov    0x8(%ebp),%eax
   42f29:	01 d0                	add    %edx,%eax
   42f2b:	0f b6 55 ef          	movzbl -0x11(%ebp),%edx
   42f2f:	88 10                	mov    %dl,(%eax)
   42f31:	ff 45 f4             	incl   -0xc(%ebp)
   42f34:	ff 4d f0             	decl   -0x10(%ebp)
   42f37:	8b 45 f4             	mov    -0xc(%ebp),%eax
   42f3a:	3b 45 f0             	cmp    -0x10(%ebp),%eax
   42f3d:	7c c1                	jl     42f00 <reverse+0x1e>
   42f3f:	90                   	nop
   42f40:	90                   	nop
   42f41:	89 ec                	mov    %ebp,%esp
   42f43:	5d                   	pop    %ebp
   42f44:	c3                   	ret    

00042f45 <putunum>:
   42f45:	55                   	push   %ebp
   42f46:	89 e5                	mov    %esp,%ebp
   42f48:	81 ec 88 00 00 00    	sub    $0x88,%esp
   42f4e:	c7 45 90 00 00 00 00 	movl   $0x0,-0x70(%ebp)
   42f55:	ba 00 00 00 00       	mov    $0x0,%edx
   42f5a:	b8 60 00 00 00       	mov    $0x60,%eax
   42f5f:	83 e0 f8             	and    $0xfffffff8,%eax
   42f62:	89 c1                	mov    %eax,%ecx
   42f64:	b8 00 00 00 00       	mov    $0x0,%eax
   42f69:	89 54 05 94          	mov    %edx,-0x6c(%ebp,%eax,1)
   42f6d:	89 54 05 98          	mov    %edx,-0x68(%ebp,%eax,1)
   42f71:	83 c0 08             	add    $0x8,%eax
   42f74:	39 c8                	cmp    %ecx,%eax
   42f76:	72 f1                	jb     42f69 <putunum+0x24>
   42f78:	c7 45 f4 00 00 00 00 	movl   $0x0,-0xc(%ebp)
   42f7f:	8b 4d 0c             	mov    0xc(%ebp),%ecx
   42f82:	8b 45 08             	mov    0x8(%ebp),%eax
   42f85:	ba 00 00 00 00       	mov    $0x0,%edx
   42f8a:	f7 f1                	div    %ecx
   42f8c:	89 d1                	mov    %edx,%ecx
   42f8e:	8b 45 f4             	mov    -0xc(%ebp),%eax
   42f91:	8d 50 01             	lea    0x1(%eax),%edx
   42f94:	89 55 f4             	mov    %edx,-0xc(%ebp)
   42f97:	0f b6 91 e0 d0 04 00 	movzbl 0x4d0e0(%ecx),%edx
   42f9e:	88 54 05 90          	mov    %dl,-0x70(%ebp,%eax,1)
   42fa2:	8b 4d 0c             	mov    0xc(%ebp),%ecx
   42fa5:	8b 45 08             	mov    0x8(%ebp),%eax
   42fa8:	ba 00 00 00 00       	mov    $0x0,%edx
   42fad:	f7 f1                	div    %ecx
   42faf:	89 45 08             	mov    %eax,0x8(%ebp)
   42fb2:	83 7d 08 00          	cmpl   $0x0,0x8(%ebp)
   42fb6:	75 c7                	jne    42f7f <putunum+0x3a>
   42fb8:	8d 45 90             	lea    -0x70(%ebp),%eax
   42fbb:	89 04 24             	mov    %eax,(%esp)
   42fbe:	e8 1f ff ff ff       	call   42ee2 <reverse>
   42fc3:	8d 45 90             	lea    -0x70(%ebp),%eax
   42fc6:	89 04 24             	mov    %eax,(%esp)
   42fc9:	e8 12 fd ff ff       	call   42ce0 <putstring>
   42fce:	90                   	nop
   42fcf:	89 ec                	mov    %ebp,%esp
   42fd1:	5d                   	pop    %ebp
   42fd2:	c3                   	ret    

00042fd3 <putunum_xy>:
   42fd3:	55                   	push   %ebp
   42fd4:	89 e5                	mov    %esp,%ebp
   42fd6:	81 ec 88 00 00 00    	sub    $0x88,%esp
   42fdc:	89 5d fc             	mov    %ebx,-0x4(%ebp)
   42fdf:	c7 45 90 00 00 00 00 	movl   $0x0,-0x70(%ebp)
   42fe6:	ba 00 00 00 00       	mov    $0x0,%edx
   42feb:	b8 60 00 00 00       	mov    $0x60,%eax
   42ff0:	83 e0 f8             	and    $0xfffffff8,%eax
   42ff3:	89 c1                	mov    %eax,%ecx
   42ff5:	b8 00 00 00 00       	mov    $0x0,%eax
   42ffa:	89 54 05 94          	mov    %edx,-0x6c(%ebp,%eax,1)
   42ffe:	89 54 05 98          	mov    %edx,-0x68(%ebp,%eax,1)
   43002:	83 c0 08             	add    $0x8,%eax
   43005:	39 c8                	cmp    %ecx,%eax
   43007:	72 f1                	jb     42ffa <putunum_xy+0x27>
   43009:	c7 45 f4 00 00 00 00 	movl   $0x0,-0xc(%ebp)
   43010:	8b 4d 0c             	mov    0xc(%ebp),%ecx
   43013:	8b 45 08             	mov    0x8(%ebp),%eax
   43016:	ba 00 00 00 00       	mov    $0x0,%edx
   4301b:	f7 f1                	div    %ecx
   4301d:	89 d1                	mov    %edx,%ecx
   4301f:	8b 45 f4             	mov    -0xc(%ebp),%eax
   43022:	8d 50 01             	lea    0x1(%eax),%edx
   43025:	89 55 f4             	mov    %edx,-0xc(%ebp)
   43028:	0f b6 91 e0 d0 04 00 	movzbl 0x4d0e0(%ecx),%edx
   4302f:	88 54 05 90          	mov    %dl,-0x70(%ebp,%eax,1)
   43033:	8b 5d 0c             	mov    0xc(%ebp),%ebx
   43036:	8b 45 08             	mov    0x8(%ebp),%eax
   43039:	ba 00 00 00 00       	mov    $0x0,%edx
   4303e:	f7 f3                	div    %ebx
   43040:	89 45 08             	mov    %eax,0x8(%ebp)
   43043:	83 7d 08 00          	cmpl   $0x0,0x8(%ebp)
   43047:	75 c7                	jne    43010 <putunum_xy+0x3d>
   43049:	83 7d 0c 10          	cmpl   $0x10,0xc(%ebp)
   4304d:	75 16                	jne    43065 <putunum_xy+0x92>
   4304f:	eb 0e                	jmp    4305f <putunum_xy+0x8c>
   43051:	8b 45 f4             	mov    -0xc(%ebp),%eax
   43054:	8d 50 01             	lea    0x1(%eax),%edx
   43057:	89 55 f4             	mov    %edx,-0xc(%ebp)
   4305a:	c6 44 05 90 30       	movb   $0x30,-0x70(%ebp,%eax,1)
   4305f:	83 7d f4 07          	cmpl   $0x7,-0xc(%ebp)
   43063:	7e ec                	jle    43051 <putunum_xy+0x7e>
   43065:	8d 45 90             	lea    -0x70(%ebp),%eax
   43068:	89 04 24             	mov    %eax,(%esp)
   4306b:	e8 72 fe ff ff       	call   42ee2 <reverse>
   43070:	a1 a8 b0 04 00       	mov    0x4b0a8,%eax
   43075:	d1 e8                	shr    %eax
   43077:	89 c3                	mov    %eax,%ebx
   43079:	8d 45 90             	lea    -0x70(%ebp),%eax
   4307c:	89 04 24             	mov    %eax,(%esp)
   4307f:	e8 a5 ec ff ff       	call   41d29 <strlen>
   43084:	d1 e8                	shr    %eax
   43086:	29 c3                	sub    %eax,%ebx
   43088:	89 da                	mov    %ebx,%edx
   4308a:	8b 45 10             	mov    0x10(%ebp),%eax
   4308d:	01 c2                	add    %eax,%edx
   4308f:	8b 45 18             	mov    0x18(%ebp),%eax
   43092:	89 44 24 0c          	mov    %eax,0xc(%esp)
   43096:	8b 45 14             	mov    0x14(%ebp),%eax
   43099:	89 44 24 08          	mov    %eax,0x8(%esp)
   4309d:	89 54 24 04          	mov    %edx,0x4(%esp)
   430a1:	8d 45 90             	lea    -0x70(%ebp),%eax
   430a4:	89 04 24             	mov    %eax,(%esp)
   430a7:	e8 87 fd ff ff       	call   42e33 <putstring_xy>
   430ac:	90                   	nop
   430ad:	8b 5d fc             	mov    -0x4(%ebp),%ebx
   430b0:	89 ec                	mov    %ebp,%esp
   430b2:	5d                   	pop    %ebp
   430b3:	c3                   	ret    

000430b4 <move_cursor>:
   430b4:	55                   	push   %ebp
   430b5:	89 e5                	mov    %esp,%ebp
   430b7:	83 ec 38             	sub    $0x38,%esp
   430ba:	a1 b4 b0 04 00       	mov    0x4b0b4,%eax
   430bf:	85 c0                	test   %eax,%eax
   430c1:	0f 84 cb 00 00 00    	je     43192 <move_cursor+0xde>
   430c7:	0f b6 05 ad c6 04 00 	movzbl 0x4c6ad,%eax
   430ce:	3c 02                	cmp    $0x2,%al
   430d0:	75 7e                	jne    43150 <move_cursor+0x9c>
   430d2:	a1 a0 b0 04 00       	mov    0x4b0a0,%eax
   430d7:	0f b7 d0             	movzwl %ax,%edx
   430da:	8b 45 0c             	mov    0xc(%ebp),%eax
   430dd:	0f b7 c0             	movzwl %ax,%eax
   430e0:	0f af c2             	imul   %edx,%eax
   430e3:	0f b7 d0             	movzwl %ax,%edx
   430e6:	8b 45 08             	mov    0x8(%ebp),%eax
   430e9:	0f b7 c0             	movzwl %ax,%eax
   430ec:	01 d0                	add    %edx,%eax
   430ee:	66 89 45 f6          	mov    %ax,-0xa(%ebp)
   430f2:	c7 44 24 04 0f 00 00 	movl   $0xf,0x4(%esp)
   430f9:	00 
   430fa:	c7 04 24 d4 03 00 00 	movl   $0x3d4,(%esp)
   43101:	e8 08 e5 ff ff       	call   4160e <outb>
   43106:	0f b7 45 f6          	movzwl -0xa(%ebp),%eax
   4310a:	0f b6 c0             	movzbl %al,%eax
   4310d:	89 44 24 04          	mov    %eax,0x4(%esp)
   43111:	c7 04 24 d5 03 00 00 	movl   $0x3d5,(%esp)
   43118:	e8 f1 e4 ff ff       	call   4160e <outb>
   4311d:	c7 44 24 04 0e 00 00 	movl   $0xe,0x4(%esp)
   43124:	00 
   43125:	c7 04 24 d4 03 00 00 	movl   $0x3d4,(%esp)
   4312c:	e8 dd e4 ff ff       	call   4160e <outb>
   43131:	0f b7 45 f6          	movzwl -0xa(%ebp),%eax
   43135:	c1 e8 08             	shr    $0x8,%eax
   43138:	0f b7 c0             	movzwl %ax,%eax
   4313b:	0f b6 c0             	movzbl %al,%eax
   4313e:	89 44 24 04          	mov    %eax,0x4(%esp)
   43142:	c7 04 24 d5 03 00 00 	movl   $0x3d5,(%esp)
   43149:	e8 c0 e4 ff ff       	call   4160e <outb>
   4314e:	eb 42                	jmp    43192 <move_cursor+0xde>
   43150:	0f b7 05 b8 b0 04 00 	movzwl 0x4b0b8,%eax
   43157:	8b 04 85 60 b0 04 00 	mov    0x4b060(,%eax,4),%eax
   4315e:	89 c1                	mov    %eax,%ecx
   43160:	a1 ec c6 04 00       	mov    0x4c6ec,%eax
   43165:	c1 e0 04             	shl    $0x4,%eax
   43168:	89 c2                	mov    %eax,%edx
   4316a:	a1 e8 c6 04 00       	mov    0x4c6e8,%eax
   4316f:	c1 e0 03             	shl    $0x3,%eax
   43172:	c7 44 24 10 00 00 00 	movl   $0x0,0x10(%esp)
   43179:	00 
   4317a:	89 4c 24 0c          	mov    %ecx,0xc(%esp)
   4317e:	89 54 24 08          	mov    %edx,0x8(%esp)
   43182:	89 44 24 04          	mov    %eax,0x4(%esp)
   43186:	c7 04 24 db 00 00 00 	movl   $0xdb,(%esp)
   4318d:	e8 32 f7 ff ff       	call   428c4 <drawchar>
   43192:	90                   	nop
   43193:	89 ec                	mov    %ebp,%esp
   43195:	5d                   	pop    %ebp
   43196:	c3                   	ret    

00043197 <init_vga>:
   43197:	55                   	push   %ebp
   43198:	89 e5                	mov    %esp,%ebp
   4319a:	56                   	push   %esi
   4319b:	53                   	push   %ebx
   4319c:	83 ec 20             	sub    $0x20,%esp
   4319f:	0f b6 05 ad c6 04 00 	movzbl 0x4c6ad,%eax
   431a6:	3c 02                	cmp    $0x2,%al
   431a8:	75 22                	jne    431cc <init_vga+0x35>
   431aa:	a1 a4 b0 04 00       	mov    0x4b0a4,%eax
   431af:	8d 50 02             	lea    0x2(%eax),%edx
   431b2:	a1 a0 b0 04 00       	mov    0x4b0a0,%eax
   431b7:	0f af c2             	imul   %edx,%eax
   431ba:	c1 e0 02             	shl    $0x2,%eax
   431bd:	89 04 24             	mov    %eax,(%esp)
   431c0:	e8 2c de ff ff       	call   40ff1 <khmalloc>
   431c5:	a3 e0 c6 04 00       	mov    %eax,0x4c6e0
   431ca:	eb 7e                	jmp    4324a <init_vga+0xb3>
   431cc:	a1 a4 c6 04 00       	mov    0x4c6a4,%eax
   431d1:	a3 a8 b0 04 00       	mov    %eax,0x4b0a8
   431d6:	a1 a8 c6 04 00       	mov    0x4c6a8,%eax
   431db:	a3 ac b0 04 00       	mov    %eax,0x4b0ac
   431e0:	a1 a8 b0 04 00       	mov    0x4b0a8,%eax
   431e5:	c1 e8 03             	shr    $0x3,%eax
   431e8:	a3 a0 b0 04 00       	mov    %eax,0x4b0a0
   431ed:	a1 ac b0 04 00       	mov    0x4b0ac,%eax
   431f2:	c1 e8 04             	shr    $0x4,%eax
   431f5:	a3 a4 b0 04 00       	mov    %eax,0x4b0a4
   431fa:	a1 a4 b0 04 00       	mov    0x4b0a4,%eax
   431ff:	8d 50 02             	lea    0x2(%eax),%edx
   43202:	a1 a0 b0 04 00       	mov    0x4b0a0,%eax
   43207:	0f af c2             	imul   %edx,%eax
   4320a:	c1 e0 02             	shl    $0x2,%eax
   4320d:	89 04 24             	mov    %eax,(%esp)
   43210:	e8 dc dd ff ff       	call   40ff1 <khmalloc>
   43215:	a3 e0 c6 04 00       	mov    %eax,0x4c6e0
   4321a:	a1 a4 b0 04 00       	mov    0x4b0a4,%eax
   4321f:	8d 50 02             	lea    0x2(%eax),%edx
   43222:	a1 a0 b0 04 00       	mov    0x4b0a0,%eax
   43227:	0f af c2             	imul   %edx,%eax
   4322a:	8d 14 85 00 00 00 00 	lea    0x0(,%eax,4),%edx
   43231:	a1 e0 c6 04 00       	mov    0x4c6e0,%eax
   43236:	89 54 24 08          	mov    %edx,0x8(%esp)
   4323a:	c7 44 24 04 00 00 00 	movl   $0x0,0x4(%esp)
   43241:	00 
   43242:	89 04 24             	mov    %eax,(%esp)
   43245:	e8 25 f2 ff ff       	call   4246f <memset>
   4324a:	a1 a4 b0 04 00       	mov    0x4b0a4,%eax
   4324f:	01 c0                	add    %eax,%eax
   43251:	89 04 24             	mov    %eax,(%esp)
   43254:	e8 98 dd ff ff       	call   40ff1 <khmalloc>
   43259:	a3 e4 c6 04 00       	mov    %eax,0x4c6e4
   4325e:	a1 b4 b0 04 00       	mov    0x4b0b4,%eax
   43263:	85 c0                	test   %eax,%eax
   43265:	0f 85 9f 00 00 00    	jne    4330a <init_vga+0x173>
   4326b:	0f b6 05 ad c6 04 00 	movzbl 0x4c6ad,%eax
   43272:	3c 02                	cmp    $0x2,%al
   43274:	0f 84 90 00 00 00    	je     4330a <init_vga+0x173>
   4327a:	c7 45 f4 00 00 00 00 	movl   $0x0,-0xc(%ebp)
   43281:	eb 7d                	jmp    43300 <init_vga+0x169>
   43283:	c7 45 f0 00 00 00 00 	movl   $0x0,-0x10(%ebp)
   4328a:	eb 6b                	jmp    432f7 <init_vga+0x160>
   4328c:	a1 ac b0 04 00       	mov    0x4b0ac,%eax
   43291:	d1 e8                	shr    %eax
   43293:	89 c2                	mov    %eax,%edx
   43295:	8b 45 f0             	mov    -0x10(%ebp),%eax
   43298:	01 d0                	add    %edx,%eax
   4329a:	8d 48 c0             	lea    -0x40(%eax),%ecx
   4329d:	a1 a8 b0 04 00       	mov    0x4b0a8,%eax
   432a2:	d1 e8                	shr    %eax
   432a4:	89 c2                	mov    %eax,%edx
   432a6:	8b 45 f4             	mov    -0xc(%ebp),%eax
   432a9:	01 d0                	add    %edx,%eax
   432ab:	8d 50 c2             	lea    -0x3e(%eax),%edx
   432ae:	8b 45 f4             	mov    -0xc(%ebp),%eax
   432b1:	8d 58 03             	lea    0x3(%eax),%ebx
   432b4:	85 c0                	test   %eax,%eax
   432b6:	0f 48 c3             	cmovs  %ebx,%eax
   432b9:	c1 f8 02             	sar    $0x2,%eax
   432bc:	89 c6                	mov    %eax,%esi
   432be:	8b 45 f0             	mov    -0x10(%ebp),%eax
   432c1:	8d 58 03             	lea    0x3(%eax),%ebx
   432c4:	85 c0                	test   %eax,%eax
   432c6:	0f 48 c3             	cmovs  %ebx,%eax
   432c9:	c1 f8 02             	sar    $0x2,%eax
   432cc:	89 c3                	mov    %eax,%ebx
   432ce:	89 d8                	mov    %ebx,%eax
   432d0:	c1 e0 05             	shl    $0x5,%eax
   432d3:	29 d8                	sub    %ebx,%eax
   432d5:	01 f0                	add    %esi,%eax
   432d7:	c1 e0 02             	shl    $0x2,%eax
   432da:	83 c0 12             	add    $0x12,%eax
   432dd:	05 a0 a0 04 00       	add    $0x4a0a0,%eax
   432e2:	8b 00                	mov    (%eax),%eax
   432e4:	89 4c 24 08          	mov    %ecx,0x8(%esp)
   432e8:	89 54 24 04          	mov    %edx,0x4(%esp)
   432ec:	89 04 24             	mov    %eax,(%esp)
   432ef:	e8 47 f5 ff ff       	call   4283b <putpixel>
   432f4:	ff 45 f0             	incl   -0x10(%ebp)
   432f7:	83 7d f0 7f          	cmpl   $0x7f,-0x10(%ebp)
   432fb:	7e 8f                	jle    4328c <init_vga+0xf5>
   432fd:	ff 45 f4             	incl   -0xc(%ebp)
   43300:	83 7d f4 7b          	cmpl   $0x7b,-0xc(%ebp)
   43304:	0f 8e 79 ff ff ff    	jle    43283 <init_vga+0xec>
   4330a:	90                   	nop
   4330b:	83 c4 20             	add    $0x20,%esp
   4330e:	5b                   	pop    %ebx
   4330f:	5e                   	pop    %esi
   43310:	5d                   	pop    %ebp
   43311:	c3                   	ret    

00043312 <getchannel>:
   43312:	55                   	push   %ebp
   43313:	89 e5                	mov    %esp,%ebp
   43315:	83 ec 10             	sub    $0x10,%esp
   43318:	a1 08 c7 04 00       	mov    0x4c708,%eax
   4331d:	89 45 fc             	mov    %eax,-0x4(%ebp)
   43320:	eb 2d                	jmp    4334f <getchannel+0x3d>
   43322:	8b 45 fc             	mov    -0x4(%ebp),%eax
   43325:	8b 40 10             	mov    0x10(%eax),%eax
   43328:	39 45 08             	cmp    %eax,0x8(%ebp)
   4332b:	74 2a                	je     43357 <getchannel+0x45>
   4332d:	8b 45 fc             	mov    -0x4(%ebp),%eax
   43330:	8b 40 0c             	mov    0xc(%eax),%eax
   43333:	8b 40 10             	mov    0x10(%eax),%eax
   43336:	39 45 08             	cmp    %eax,0x8(%ebp)
   43339:	75 0b                	jne    43346 <getchannel+0x34>
   4333b:	8b 45 fc             	mov    -0x4(%ebp),%eax
   4333e:	8b 40 0c             	mov    0xc(%eax),%eax
   43341:	89 45 fc             	mov    %eax,-0x4(%ebp)
   43344:	eb 12                	jmp    43358 <getchannel+0x46>
   43346:	8b 45 fc             	mov    -0x4(%ebp),%eax
   43349:	8b 40 08             	mov    0x8(%eax),%eax
   4334c:	89 45 fc             	mov    %eax,-0x4(%ebp)
   4334f:	83 7d fc 00          	cmpl   $0x0,-0x4(%ebp)
   43353:	75 cd                	jne    43322 <getchannel+0x10>
   43355:	eb 01                	jmp    43358 <getchannel+0x46>
   43357:	90                   	nop
   43358:	8b 45 fc             	mov    -0x4(%ebp),%eax
   4335b:	89 ec                	mov    %ebp,%esp
   4335d:	5d                   	pop    %ebp
   4335e:	c3                   	ret    

0004335f <ide_read_buffer>:
   4335f:	55                   	push   %ebp
   43360:	89 e5                	mov    %esp,%ebp
   43362:	83 ec 28             	sub    $0x28,%esp
   43365:	8b 45 0c             	mov    0xc(%ebp),%eax
   43368:	88 45 f4             	mov    %al,-0xc(%ebp)
   4336b:	80 7d f4 07          	cmpb   $0x7,-0xc(%ebp)
   4336f:	76 29                	jbe    4339a <ide_read_buffer+0x3b>
   43371:	80 7d f4 0b          	cmpb   $0xb,-0xc(%ebp)
   43375:	77 23                	ja     4339a <ide_read_buffer+0x3b>
   43377:	8b 45 08             	mov    0x8(%ebp),%eax
   4337a:	0f b6 40 06          	movzbl 0x6(%eax),%eax
   4337e:	0c 80                	or     $0x80,%al
   43380:	0f b6 c0             	movzbl %al,%eax
   43383:	89 44 24 08          	mov    %eax,0x8(%esp)
   43387:	c7 44 24 04 0c 00 00 	movl   $0xc,0x4(%esp)
   4338e:	00 
   4338f:	8b 45 08             	mov    0x8(%ebp),%eax
   43392:	89 04 24             	mov    %eax,(%esp)
   43395:	e8 24 02 00 00       	call   435be <ide_write>
   4339a:	8c 05 24 cf 04 00    	mov    %es,0x4cf24
   433a0:	66 8c d8             	mov    %ds,%ax
   433a3:	8e c0                	mov    %eax,%es
   433a5:	80 7d f4 07          	cmpb   $0x7,-0xc(%ebp)
   433a9:	77 2b                	ja     433d6 <ide_read_buffer+0x77>
   433ab:	8b 45 10             	mov    0x10(%ebp),%eax
   433ae:	8b 55 08             	mov    0x8(%ebp),%edx
   433b1:	0f b7 12             	movzwl (%edx),%edx
   433b4:	89 d1                	mov    %edx,%ecx
   433b6:	0f b6 55 f4          	movzbl -0xc(%ebp),%edx
   433ba:	01 ca                	add    %ecx,%edx
   433bc:	89 d1                	mov    %edx,%ecx
   433be:	8b 55 14             	mov    0x14(%ebp),%edx
   433c1:	89 54 24 08          	mov    %edx,0x8(%esp)
   433c5:	89 44 24 04          	mov    %eax,0x4(%esp)
   433c9:	89 0c 24             	mov    %ecx,(%esp)
   433cc:	e8 ba e2 ff ff       	call   4168b <insl>
   433d1:	e9 93 00 00 00       	jmp    43469 <ide_read_buffer+0x10a>
   433d6:	80 7d f4 0b          	cmpb   $0xb,-0xc(%ebp)
   433da:	77 2b                	ja     43407 <ide_read_buffer+0xa8>
   433dc:	8b 45 10             	mov    0x10(%ebp),%eax
   433df:	8b 55 08             	mov    0x8(%ebp),%edx
   433e2:	0f b7 12             	movzwl (%edx),%edx
   433e5:	89 d1                	mov    %edx,%ecx
   433e7:	0f b6 55 f4          	movzbl -0xc(%ebp),%edx
   433eb:	01 ca                	add    %ecx,%edx
   433ed:	83 ea 06             	sub    $0x6,%edx
   433f0:	89 d1                	mov    %edx,%ecx
   433f2:	8b 55 14             	mov    0x14(%ebp),%edx
   433f5:	89 54 24 08          	mov    %edx,0x8(%esp)
   433f9:	89 44 24 04          	mov    %eax,0x4(%esp)
   433fd:	89 0c 24             	mov    %ecx,(%esp)
   43400:	e8 86 e2 ff ff       	call   4168b <insl>
   43405:	eb 62                	jmp    43469 <ide_read_buffer+0x10a>
   43407:	80 7d f4 0d          	cmpb   $0xd,-0xc(%ebp)
   4340b:	77 2c                	ja     43439 <ide_read_buffer+0xda>
   4340d:	8b 45 10             	mov    0x10(%ebp),%eax
   43410:	8b 55 08             	mov    0x8(%ebp),%edx
   43413:	0f b7 52 02          	movzwl 0x2(%edx),%edx
   43417:	89 d1                	mov    %edx,%ecx
   43419:	0f b6 55 f4          	movzbl -0xc(%ebp),%edx
   4341d:	01 ca                	add    %ecx,%edx
   4341f:	83 ea 0a             	sub    $0xa,%edx
   43422:	89 d1                	mov    %edx,%ecx
   43424:	8b 55 14             	mov    0x14(%ebp),%edx
   43427:	89 54 24 08          	mov    %edx,0x8(%esp)
   4342b:	89 44 24 04          	mov    %eax,0x4(%esp)
   4342f:	89 0c 24             	mov    %ecx,(%esp)
   43432:	e8 54 e2 ff ff       	call   4168b <insl>
   43437:	eb 30                	jmp    43469 <ide_read_buffer+0x10a>
   43439:	80 7d f4 15          	cmpb   $0x15,-0xc(%ebp)
   4343d:	77 2a                	ja     43469 <ide_read_buffer+0x10a>
   4343f:	8b 45 10             	mov    0x10(%ebp),%eax
   43442:	8b 55 08             	mov    0x8(%ebp),%edx
   43445:	0f b7 52 04          	movzwl 0x4(%edx),%edx
   43449:	89 d1                	mov    %edx,%ecx
   4344b:	0f b6 55 f4          	movzbl -0xc(%ebp),%edx
   4344f:	01 ca                	add    %ecx,%edx
   43451:	83 ea 0e             	sub    $0xe,%edx
   43454:	89 d1                	mov    %edx,%ecx
   43456:	8b 55 14             	mov    0x14(%ebp),%edx
   43459:	89 54 24 08          	mov    %edx,0x8(%esp)
   4345d:	89 44 24 04          	mov    %eax,0x4(%esp)
   43461:	89 0c 24             	mov    %ecx,(%esp)
   43464:	e8 22 e2 ff ff       	call   4168b <insl>
   43469:	8e 05 24 cf 04 00    	mov    0x4cf24,%es
   4346f:	80 7d f4 07          	cmpb   $0x7,-0xc(%ebp)
   43473:	76 27                	jbe    4349c <ide_read_buffer+0x13d>
   43475:	80 7d f4 0b          	cmpb   $0xb,-0xc(%ebp)
   43479:	77 21                	ja     4349c <ide_read_buffer+0x13d>
   4347b:	8b 45 08             	mov    0x8(%ebp),%eax
   4347e:	0f b6 40 06          	movzbl 0x6(%eax),%eax
   43482:	0f b6 c0             	movzbl %al,%eax
   43485:	89 44 24 08          	mov    %eax,0x8(%esp)
   43489:	c7 44 24 04 0c 00 00 	movl   $0xc,0x4(%esp)
   43490:	00 
   43491:	8b 45 08             	mov    0x8(%ebp),%eax
   43494:	89 04 24             	mov    %eax,(%esp)
   43497:	e8 22 01 00 00       	call   435be <ide_write>
   4349c:	90                   	nop
   4349d:	89 ec                	mov    %ebp,%esp
   4349f:	5d                   	pop    %ebp
   434a0:	c3                   	ret    

000434a1 <ide_read>:
   434a1:	55                   	push   %ebp
   434a2:	89 e5                	mov    %esp,%ebp
   434a4:	83 ec 38             	sub    $0x38,%esp
   434a7:	8b 45 0c             	mov    0xc(%ebp),%eax
   434aa:	88 45 e4             	mov    %al,-0x1c(%ebp)
   434ad:	c6 45 f7 00          	movb   $0x0,-0x9(%ebp)
   434b1:	80 7d e4 07          	cmpb   $0x7,-0x1c(%ebp)
   434b5:	76 29                	jbe    434e0 <ide_read+0x3f>
   434b7:	80 7d e4 0b          	cmpb   $0xb,-0x1c(%ebp)
   434bb:	77 23                	ja     434e0 <ide_read+0x3f>
   434bd:	8b 45 08             	mov    0x8(%ebp),%eax
   434c0:	0f b6 40 06          	movzbl 0x6(%eax),%eax
   434c4:	0c 80                	or     $0x80,%al
   434c6:	0f b6 c0             	movzbl %al,%eax
   434c9:	89 44 24 08          	mov    %eax,0x8(%esp)
   434cd:	c7 44 24 04 0c 00 00 	movl   $0xc,0x4(%esp)
   434d4:	00 
   434d5:	8b 45 08             	mov    0x8(%ebp),%eax
   434d8:	89 04 24             	mov    %eax,(%esp)
   434db:	e8 de 00 00 00       	call   435be <ide_write>
   434e0:	80 7d e4 07          	cmpb   $0x7,-0x1c(%ebp)
   434e4:	77 22                	ja     43508 <ide_read+0x67>
   434e6:	8b 45 08             	mov    0x8(%ebp),%eax
   434e9:	0f b7 10             	movzwl (%eax),%edx
   434ec:	0f b6 45 e4          	movzbl -0x1c(%ebp),%eax
   434f0:	0f b7 c0             	movzwl %ax,%eax
   434f3:	01 d0                	add    %edx,%eax
   434f5:	0f b7 c0             	movzwl %ax,%eax
   434f8:	89 04 24             	mov    %eax,(%esp)
   434fb:	e8 30 e1 ff ff       	call   41630 <inb>
   43500:	88 45 f7             	mov    %al,-0x9(%ebp)
   43503:	e9 81 00 00 00       	jmp    43589 <ide_read+0xe8>
   43508:	80 7d e4 0b          	cmpb   $0xb,-0x1c(%ebp)
   4350c:	77 25                	ja     43533 <ide_read+0x92>
   4350e:	8b 45 08             	mov    0x8(%ebp),%eax
   43511:	0f b7 10             	movzwl (%eax),%edx
   43514:	0f b6 45 e4          	movzbl -0x1c(%ebp),%eax
   43518:	0f b7 c0             	movzwl %ax,%eax
   4351b:	01 d0                	add    %edx,%eax
   4351d:	0f b7 c0             	movzwl %ax,%eax
   43520:	83 e8 06             	sub    $0x6,%eax
   43523:	0f b7 c0             	movzwl %ax,%eax
   43526:	89 04 24             	mov    %eax,(%esp)
   43529:	e8 02 e1 ff ff       	call   41630 <inb>
   4352e:	88 45 f7             	mov    %al,-0x9(%ebp)
   43531:	eb 56                	jmp    43589 <ide_read+0xe8>
   43533:	80 7d e4 0d          	cmpb   $0xd,-0x1c(%ebp)
   43537:	77 26                	ja     4355f <ide_read+0xbe>
   43539:	8b 45 08             	mov    0x8(%ebp),%eax
   4353c:	0f b7 50 02          	movzwl 0x2(%eax),%edx
   43540:	0f b6 45 e4          	movzbl -0x1c(%ebp),%eax
   43544:	0f b7 c0             	movzwl %ax,%eax
   43547:	01 d0                	add    %edx,%eax
   43549:	0f b7 c0             	movzwl %ax,%eax
   4354c:	83 e8 0a             	sub    $0xa,%eax
   4354f:	0f b7 c0             	movzwl %ax,%eax
   43552:	89 04 24             	mov    %eax,(%esp)
   43555:	e8 d6 e0 ff ff       	call   41630 <inb>
   4355a:	88 45 f7             	mov    %al,-0x9(%ebp)
   4355d:	eb 2a                	jmp    43589 <ide_read+0xe8>
   4355f:	80 7d e4 15          	cmpb   $0x15,-0x1c(%ebp)
   43563:	77 24                	ja     43589 <ide_read+0xe8>
   43565:	8b 45 08             	mov    0x8(%ebp),%eax
   43568:	0f b7 50 04          	movzwl 0x4(%eax),%edx
   4356c:	0f b6 45 e4          	movzbl -0x1c(%ebp),%eax
   43570:	0f b7 c0             	movzwl %ax,%eax
   43573:	01 d0                	add    %edx,%eax
   43575:	0f b7 c0             	movzwl %ax,%eax
   43578:	83 e8 0e             	sub    $0xe,%eax
   4357b:	0f b7 c0             	movzwl %ax,%eax
   4357e:	89 04 24             	mov    %eax,(%esp)
   43581:	e8 aa e0 ff ff       	call   41630 <inb>
   43586:	88 45 f7             	mov    %al,-0x9(%ebp)
   43589:	80 7d e4 07          	cmpb   $0x7,-0x1c(%ebp)
   4358d:	76 27                	jbe    435b6 <ide_read+0x115>
   4358f:	80 7d e4 0b          	cmpb   $0xb,-0x1c(%ebp)
   43593:	77 21                	ja     435b6 <ide_read+0x115>
   43595:	8b 45 08             	mov    0x8(%ebp),%eax
   43598:	0f b6 40 06          	movzbl 0x6(%eax),%eax
   4359c:	0f b6 c0             	movzbl %al,%eax
   4359f:	89 44 24 08          	mov    %eax,0x8(%esp)
   435a3:	c7 44 24 04 0c 00 00 	movl   $0xc,0x4(%esp)
   435aa:	00 
   435ab:	8b 45 08             	mov    0x8(%ebp),%eax
   435ae:	89 04 24             	mov    %eax,(%esp)
   435b1:	e8 08 00 00 00       	call   435be <ide_write>
   435b6:	0f b6 45 f7          	movzbl -0x9(%ebp),%eax
   435ba:	89 ec                	mov    %ebp,%esp
   435bc:	5d                   	pop    %ebp
   435bd:	c3                   	ret    

000435be <ide_write>:
   435be:	55                   	push   %ebp
   435bf:	89 e5                	mov    %esp,%ebp
   435c1:	83 ec 28             	sub    $0x28,%esp
   435c4:	8b 45 0c             	mov    0xc(%ebp),%eax
   435c7:	8b 55 10             	mov    0x10(%ebp),%edx
   435ca:	88 45 f4             	mov    %al,-0xc(%ebp)
   435cd:	88 d0                	mov    %dl,%al
   435cf:	88 45 f0             	mov    %al,-0x10(%ebp)
   435d2:	80 7d f4 07          	cmpb   $0x7,-0xc(%ebp)
   435d6:	76 29                	jbe    43601 <ide_write+0x43>
   435d8:	80 7d f4 0b          	cmpb   $0xb,-0xc(%ebp)
   435dc:	77 23                	ja     43601 <ide_write+0x43>
   435de:	8b 45 08             	mov    0x8(%ebp),%eax
   435e1:	0f b6 40 06          	movzbl 0x6(%eax),%eax
   435e5:	0c 80                	or     $0x80,%al
   435e7:	0f b6 c0             	movzbl %al,%eax
   435ea:	89 44 24 08          	mov    %eax,0x8(%esp)
   435ee:	c7 44 24 04 0c 00 00 	movl   $0xc,0x4(%esp)
   435f5:	00 
   435f6:	8b 45 08             	mov    0x8(%ebp),%eax
   435f9:	89 04 24             	mov    %eax,(%esp)
   435fc:	e8 bd ff ff ff       	call   435be <ide_write>
   43601:	80 7d f4 07          	cmpb   $0x7,-0xc(%ebp)
   43605:	77 27                	ja     4362e <ide_write+0x70>
   43607:	0f b6 45 f0          	movzbl -0x10(%ebp),%eax
   4360b:	8b 55 08             	mov    0x8(%ebp),%edx
   4360e:	0f b7 0a             	movzwl (%edx),%ecx
   43611:	0f b6 55 f4          	movzbl -0xc(%ebp),%edx
   43615:	0f b7 d2             	movzwl %dx,%edx
   43618:	01 ca                	add    %ecx,%edx
   4361a:	0f b7 d2             	movzwl %dx,%edx
   4361d:	89 44 24 04          	mov    %eax,0x4(%esp)
   43621:	89 14 24             	mov    %edx,(%esp)
   43624:	e8 e5 df ff ff       	call   4160e <outb>
   43629:	e9 90 00 00 00       	jmp    436be <ide_write+0x100>
   4362e:	80 7d f4 0b          	cmpb   $0xb,-0xc(%ebp)
   43632:	77 2a                	ja     4365e <ide_write+0xa0>
   43634:	0f b6 45 f0          	movzbl -0x10(%ebp),%eax
   43638:	8b 55 08             	mov    0x8(%ebp),%edx
   4363b:	0f b7 0a             	movzwl (%edx),%ecx
   4363e:	0f b6 55 f4          	movzbl -0xc(%ebp),%edx
   43642:	0f b7 d2             	movzwl %dx,%edx
   43645:	01 ca                	add    %ecx,%edx
   43647:	0f b7 d2             	movzwl %dx,%edx
   4364a:	83 ea 06             	sub    $0x6,%edx
   4364d:	0f b7 d2             	movzwl %dx,%edx
   43650:	89 44 24 04          	mov    %eax,0x4(%esp)
   43654:	89 14 24             	mov    %edx,(%esp)
   43657:	e8 b2 df ff ff       	call   4160e <outb>
   4365c:	eb 60                	jmp    436be <ide_write+0x100>
   4365e:	80 7d f4 0d          	cmpb   $0xd,-0xc(%ebp)
   43662:	77 2b                	ja     4368f <ide_write+0xd1>
   43664:	0f b6 45 f0          	movzbl -0x10(%ebp),%eax
   43668:	8b 55 08             	mov    0x8(%ebp),%edx
   4366b:	0f b7 4a 02          	movzwl 0x2(%edx),%ecx
   4366f:	0f b6 55 f4          	movzbl -0xc(%ebp),%edx
   43673:	0f b7 d2             	movzwl %dx,%edx
   43676:	01 ca                	add    %ecx,%edx
   43678:	0f b7 d2             	movzwl %dx,%edx
   4367b:	83 ea 0a             	sub    $0xa,%edx
   4367e:	0f b7 d2             	movzwl %dx,%edx
   43681:	89 44 24 04          	mov    %eax,0x4(%esp)
   43685:	89 14 24             	mov    %edx,(%esp)
   43688:	e8 81 df ff ff       	call   4160e <outb>
   4368d:	eb 2f                	jmp    436be <ide_write+0x100>
   4368f:	80 7d f4 15          	cmpb   $0x15,-0xc(%ebp)
   43693:	77 29                	ja     436be <ide_write+0x100>
   43695:	0f b6 45 f0          	movzbl -0x10(%ebp),%eax
   43699:	8b 55 08             	mov    0x8(%ebp),%edx
   4369c:	0f b7 4a 04          	movzwl 0x4(%edx),%ecx
   436a0:	0f b6 55 f4          	movzbl -0xc(%ebp),%edx
   436a4:	0f b7 d2             	movzwl %dx,%edx
   436a7:	01 ca                	add    %ecx,%edx
   436a9:	0f b7 d2             	movzwl %dx,%edx
   436ac:	83 ea 0e             	sub    $0xe,%edx
   436af:	0f b7 d2             	movzwl %dx,%edx
   436b2:	89 44 24 04          	mov    %eax,0x4(%esp)
   436b6:	89 14 24             	mov    %edx,(%esp)
   436b9:	e8 50 df ff ff       	call   4160e <outb>
   436be:	80 7d f4 07          	cmpb   $0x7,-0xc(%ebp)
   436c2:	76 27                	jbe    436eb <ide_write+0x12d>
   436c4:	80 7d f4 0b          	cmpb   $0xb,-0xc(%ebp)
   436c8:	77 21                	ja     436eb <ide_write+0x12d>
   436ca:	8b 45 08             	mov    0x8(%ebp),%eax
   436cd:	0f b6 40 06          	movzbl 0x6(%eax),%eax
   436d1:	0f b6 c0             	movzbl %al,%eax
   436d4:	89 44 24 08          	mov    %eax,0x8(%esp)
   436d8:	c7 44 24 04 0c 00 00 	movl   $0xc,0x4(%esp)
   436df:	00 
   436e0:	8b 45 08             	mov    0x8(%ebp),%eax
   436e3:	89 04 24             	mov    %eax,(%esp)
   436e6:	e8 d3 fe ff ff       	call   435be <ide_write>
   436eb:	90                   	nop
   436ec:	89 ec                	mov    %ebp,%esp
   436ee:	5d                   	pop    %ebp
   436ef:	c3                   	ret    

000436f0 <ide_polling>:
   436f0:	55                   	push   %ebp
   436f1:	89 e5                	mov    %esp,%ebp
   436f3:	83 ec 28             	sub    $0x28,%esp
   436f6:	c7 45 f4 00 00 00 00 	movl   $0x0,-0xc(%ebp)
   436fd:	eb 16                	jmp    43715 <ide_polling+0x25>
   436ff:	c7 44 24 04 0c 00 00 	movl   $0xc,0x4(%esp)
   43706:	00 
   43707:	8b 45 08             	mov    0x8(%ebp),%eax
   4370a:	89 04 24             	mov    %eax,(%esp)
   4370d:	e8 8f fd ff ff       	call   434a1 <ide_read>
   43712:	ff 45 f4             	incl   -0xc(%ebp)
   43715:	83 7d f4 03          	cmpl   $0x3,-0xc(%ebp)
   43719:	7e e4                	jle    436ff <ide_polling+0xf>
   4371b:	90                   	nop
   4371c:	c7 44 24 04 07 00 00 	movl   $0x7,0x4(%esp)
   43723:	00 
   43724:	8b 45 08             	mov    0x8(%ebp),%eax
   43727:	89 04 24             	mov    %eax,(%esp)
   4372a:	e8 72 fd ff ff       	call   434a1 <ide_read>
   4372f:	84 c0                	test   %al,%al
   43731:	78 e9                	js     4371c <ide_polling+0x2c>
   43733:	83 7d 0c 00          	cmpl   $0x0,0xc(%ebp)
   43737:	74 43                	je     4377c <ide_polling+0x8c>
   43739:	c7 44 24 04 07 00 00 	movl   $0x7,0x4(%esp)
   43740:	00 
   43741:	8b 45 08             	mov    0x8(%ebp),%eax
   43744:	89 04 24             	mov    %eax,(%esp)
   43747:	e8 55 fd ff ff       	call   434a1 <ide_read>
   4374c:	88 45 f3             	mov    %al,-0xd(%ebp)
   4374f:	0f b6 45 f3          	movzbl -0xd(%ebp),%eax
   43753:	83 e0 01             	and    $0x1,%eax
   43756:	85 c0                	test   %eax,%eax
   43758:	74 04                	je     4375e <ide_polling+0x6e>
   4375a:	b0 02                	mov    $0x2,%al
   4375c:	eb 20                	jmp    4377e <ide_polling+0x8e>
   4375e:	0f b6 45 f3          	movzbl -0xd(%ebp),%eax
   43762:	83 e0 20             	and    $0x20,%eax
   43765:	85 c0                	test   %eax,%eax
   43767:	74 04                	je     4376d <ide_polling+0x7d>
   43769:	b0 01                	mov    $0x1,%al
   4376b:	eb 11                	jmp    4377e <ide_polling+0x8e>
   4376d:	0f b6 45 f3          	movzbl -0xd(%ebp),%eax
   43771:	83 e0 08             	and    $0x8,%eax
   43774:	85 c0                	test   %eax,%eax
   43776:	75 04                	jne    4377c <ide_polling+0x8c>
   43778:	b0 03                	mov    $0x3,%al
   4377a:	eb 02                	jmp    4377e <ide_polling+0x8e>
   4377c:	b0 00                	mov    $0x0,%al
   4377e:	89 ec                	mov    %ebp,%esp
   43780:	5d                   	pop    %ebp
   43781:	c3                   	ret    

00043782 <ide_ata_access>:
   43782:	55                   	push   %ebp
   43783:	89 e5                	mov    %esp,%ebp
   43785:	57                   	push   %edi
   43786:	56                   	push   %esi
   43787:	53                   	push   %ebx
   43788:	83 ec 6c             	sub    $0x6c,%esp
   4378b:	8b 55 08             	mov    0x8(%ebp),%edx
   4378e:	8b 5d 0c             	mov    0xc(%ebp),%ebx
   43791:	8b 4d 14             	mov    0x14(%ebp),%ecx
   43794:	8b 45 18             	mov    0x18(%ebp),%eax
   43797:	88 55 a4             	mov    %dl,-0x5c(%ebp)
   4379a:	88 da                	mov    %bl,%dl
   4379c:	88 55 a0             	mov    %dl,-0x60(%ebp)
   4379f:	88 ca                	mov    %cl,%dl
   437a1:	88 55 9c             	mov    %dl,-0x64(%ebp)
   437a4:	66 89 45 98          	mov    %ax,-0x68(%ebp)
   437a8:	a1 08 c7 04 00       	mov    0x4c708,%eax
   437ad:	89 45 e4             	mov    %eax,-0x1c(%ebp)
   437b0:	c7 45 e0 00 00 00 00 	movl   $0x0,-0x20(%ebp)
   437b7:	e9 81 00 00 00       	jmp    4383d <ide_ata_access+0xbb>
   437bc:	c7 45 d8 00 00 00 00 	movl   $0x0,-0x28(%ebp)
   437c3:	eb 69                	jmp    4382e <ide_ata_access+0xac>
   437c5:	8b 4d e4             	mov    -0x1c(%ebp),%ecx
   437c8:	8b 55 d8             	mov    -0x28(%ebp),%edx
   437cb:	89 d0                	mov    %edx,%eax
   437cd:	c1 e0 03             	shl    $0x3,%eax
   437d0:	01 d0                	add    %edx,%eax
   437d2:	c1 e0 03             	shl    $0x3,%eax
   437d5:	01 c8                	add    %ecx,%eax
   437d7:	83 c0 5c             	add    $0x5c,%eax
   437da:	8b 10                	mov    (%eax),%edx
   437dc:	0f b6 45 a0          	movzbl -0x60(%ebp),%eax
   437e0:	39 c2                	cmp    %eax,%edx
   437e2:	75 11                	jne    437f5 <ide_ata_access+0x73>
   437e4:	8b 45 d8             	mov    -0x28(%ebp),%eax
   437e7:	89 45 e0             	mov    %eax,-0x20(%ebp)
   437ea:	8b 45 e4             	mov    -0x1c(%ebp),%eax
   437ed:	8b 40 10             	mov    0x10(%eax),%eax
   437f0:	89 45 dc             	mov    %eax,-0x24(%ebp)
   437f3:	eb 60                	jmp    43855 <ide_ata_access+0xd3>
   437f5:	8b 45 e4             	mov    -0x1c(%ebp),%eax
   437f8:	8b 48 0c             	mov    0xc(%eax),%ecx
   437fb:	8b 55 d8             	mov    -0x28(%ebp),%edx
   437fe:	89 d0                	mov    %edx,%eax
   43800:	c1 e0 03             	shl    $0x3,%eax
   43803:	01 d0                	add    %edx,%eax
   43805:	c1 e0 03             	shl    $0x3,%eax
   43808:	01 c8                	add    %ecx,%eax
   4380a:	83 c0 5c             	add    $0x5c,%eax
   4380d:	8b 10                	mov    (%eax),%edx
   4380f:	0f b6 45 a0          	movzbl -0x60(%ebp),%eax
   43813:	39 c2                	cmp    %eax,%edx
   43815:	75 14                	jne    4382b <ide_ata_access+0xa9>
   43817:	8b 45 d8             	mov    -0x28(%ebp),%eax
   4381a:	89 45 e0             	mov    %eax,-0x20(%ebp)
   4381d:	8b 45 e4             	mov    -0x1c(%ebp),%eax
   43820:	8b 40 0c             	mov    0xc(%eax),%eax
   43823:	8b 40 10             	mov    0x10(%eax),%eax
   43826:	89 45 dc             	mov    %eax,-0x24(%ebp)
   43829:	eb 2a                	jmp    43855 <ide_ata_access+0xd3>
   4382b:	ff 45 d8             	incl   -0x28(%ebp)
   4382e:	83 7d d8 02          	cmpl   $0x2,-0x28(%ebp)
   43832:	76 91                	jbe    437c5 <ide_ata_access+0x43>
   43834:	8b 45 e4             	mov    -0x1c(%ebp),%eax
   43837:	8b 40 08             	mov    0x8(%eax),%eax
   4383a:	89 45 e4             	mov    %eax,-0x1c(%ebp)
   4383d:	83 7d e4 00          	cmpl   $0x0,-0x1c(%ebp)
   43841:	0f 85 75 ff ff ff    	jne    437bc <ide_ata_access+0x3a>
   43847:	83 7d e4 00          	cmpl   $0x0,-0x1c(%ebp)
   4384b:	75 07                	jne    43854 <ide_ata_access+0xd2>
   4384d:	b0 13                	mov    $0x13,%al
   4384f:	e9 eb 05 00 00       	jmp    43e3f <ide_ata_access+0x6bd>
   43854:	90                   	nop
   43855:	8b 45 dc             	mov    -0x24(%ebp),%eax
   43858:	89 04 24             	mov    %eax,(%esp)
   4385b:	e8 b2 fa ff ff       	call   43312 <getchannel>
   43860:	89 c1                	mov    %eax,%ecx
   43862:	8b 55 e0             	mov    -0x20(%ebp),%edx
   43865:	89 d0                	mov    %edx,%eax
   43867:	c1 e0 03             	shl    $0x3,%eax
   4386a:	01 d0                	add    %edx,%eax
   4386c:	c1 e0 03             	shl    $0x3,%eax
   4386f:	01 c8                	add    %ecx,%eax
   43871:	83 c0 20             	add    $0x20,%eax
   43874:	0f b6 00             	movzbl (%eax),%eax
   43877:	0f b6 c0             	movzbl %al,%eax
   4387a:	89 45 cc             	mov    %eax,-0x34(%ebp)
   4387d:	8b 45 dc             	mov    -0x24(%ebp),%eax
   43880:	89 04 24             	mov    %eax,(%esp)
   43883:	e8 8a fa ff ff       	call   43312 <getchannel>
   43888:	0f b7 00             	movzwl (%eax),%eax
   4388b:	89 45 c8             	mov    %eax,-0x38(%ebp)
   4388e:	c7 45 c4 00 01 00 00 	movl   $0x100,-0x3c(%ebp)
   43895:	c6 05 20 cf 04 00 00 	movb   $0x0,0x4cf20
   4389c:	8b 45 dc             	mov    -0x24(%ebp),%eax
   4389f:	89 04 24             	mov    %eax,(%esp)
   438a2:	e8 6b fa ff ff       	call   43312 <getchannel>
   438a7:	c6 40 06 02          	movb   $0x2,0x6(%eax)
   438ab:	0f b6 40 06          	movzbl 0x6(%eax),%eax
   438af:	0f b6 d8             	movzbl %al,%ebx
   438b2:	8b 45 dc             	mov    -0x24(%ebp),%eax
   438b5:	89 04 24             	mov    %eax,(%esp)
   438b8:	e8 55 fa ff ff       	call   43312 <getchannel>
   438bd:	89 5c 24 08          	mov    %ebx,0x8(%esp)
   438c1:	c7 44 24 04 0c 00 00 	movl   $0xc,0x4(%esp)
   438c8:	00 
   438c9:	89 04 24             	mov    %eax,(%esp)
   438cc:	e8 ed fc ff ff       	call   435be <ide_write>
   438d1:	81 7d 10 ff ff ff 0f 	cmpl   $0xfffffff,0x10(%ebp)
   438d8:	76 36                	jbe    43910 <ide_ata_access+0x18e>
   438da:	c6 45 d7 02          	movb   $0x2,-0x29(%ebp)
   438de:	8b 45 10             	mov    0x10(%ebp),%eax
   438e1:	88 45 b8             	mov    %al,-0x48(%ebp)
   438e4:	8b 45 10             	mov    0x10(%ebp),%eax
   438e7:	c1 e8 08             	shr    $0x8,%eax
   438ea:	88 45 b9             	mov    %al,-0x47(%ebp)
   438ed:	8b 45 10             	mov    0x10(%ebp),%eax
   438f0:	c1 e8 10             	shr    $0x10,%eax
   438f3:	88 45 ba             	mov    %al,-0x46(%ebp)
   438f6:	8b 45 10             	mov    0x10(%ebp),%eax
   438f9:	c1 e8 18             	shr    $0x18,%eax
   438fc:	88 45 bb             	mov    %al,-0x45(%ebp)
   438ff:	c6 45 bc 00          	movb   $0x0,-0x44(%ebp)
   43903:	c6 45 bd 00          	movb   $0x0,-0x43(%ebp)
   43907:	c6 45 d3 00          	movb   $0x0,-0x2d(%ebp)
   4390b:	e9 17 01 00 00       	jmp    43a27 <ide_ata_access+0x2a5>
   43910:	8b 45 dc             	mov    -0x24(%ebp),%eax
   43913:	89 04 24             	mov    %eax,(%esp)
   43916:	e8 f7 f9 ff ff       	call   43312 <getchannel>
   4391b:	89 c1                	mov    %eax,%ecx
   4391d:	8b 55 e0             	mov    -0x20(%ebp),%edx
   43920:	89 d0                	mov    %edx,%eax
   43922:	c1 e0 03             	shl    $0x3,%eax
   43925:	01 d0                	add    %edx,%eax
   43927:	c1 e0 03             	shl    $0x3,%eax
   4392a:	01 c8                	add    %ecx,%eax
   4392c:	83 c0 26             	add    $0x26,%eax
   4392f:	0f b7 00             	movzwl (%eax),%eax
   43932:	25 00 02 00 00       	and    $0x200,%eax
   43937:	85 c0                	test   %eax,%eax
   43939:	74 38                	je     43973 <ide_ata_access+0x1f1>
   4393b:	c6 45 d7 01          	movb   $0x1,-0x29(%ebp)
   4393f:	8b 45 10             	mov    0x10(%ebp),%eax
   43942:	88 45 b8             	mov    %al,-0x48(%ebp)
   43945:	8b 45 10             	mov    0x10(%ebp),%eax
   43948:	c1 e8 08             	shr    $0x8,%eax
   4394b:	88 45 b9             	mov    %al,-0x47(%ebp)
   4394e:	8b 45 10             	mov    0x10(%ebp),%eax
   43951:	c1 e8 10             	shr    $0x10,%eax
   43954:	88 45 ba             	mov    %al,-0x46(%ebp)
   43957:	c6 45 bb 00          	movb   $0x0,-0x45(%ebp)
   4395b:	c6 45 bc 00          	movb   $0x0,-0x44(%ebp)
   4395f:	c6 45 bd 00          	movb   $0x0,-0x43(%ebp)
   43963:	8b 45 10             	mov    0x10(%ebp),%eax
   43966:	c1 e8 18             	shr    $0x18,%eax
   43969:	24 0f                	and    $0xf,%al
   4396b:	88 45 d3             	mov    %al,-0x2d(%ebp)
   4396e:	e9 b4 00 00 00       	jmp    43a27 <ide_ata_access+0x2a5>
   43973:	c6 45 d7 00          	movb   $0x0,-0x29(%ebp)
   43977:	8b 4d 10             	mov    0x10(%ebp),%ecx
   4397a:	ba 05 41 10 04       	mov    $0x4104105,%edx
   4397f:	89 c8                	mov    %ecx,%eax
   43981:	f7 e2                	mul    %edx
   43983:	89 c8                	mov    %ecx,%eax
   43985:	29 d0                	sub    %edx,%eax
   43987:	d1 e8                	shr    %eax
   43989:	01 d0                	add    %edx,%eax
   4398b:	c1 e8 05             	shr    $0x5,%eax
   4398e:	89 c2                	mov    %eax,%edx
   43990:	89 d0                	mov    %edx,%eax
   43992:	c1 e0 06             	shl    $0x6,%eax
   43995:	29 d0                	sub    %edx,%eax
   43997:	29 c1                	sub    %eax,%ecx
   43999:	89 ca                	mov    %ecx,%edx
   4399b:	88 d0                	mov    %dl,%al
   4399d:	fe c0                	inc    %al
   4399f:	88 45 c3             	mov    %al,-0x3d(%ebp)
   439a2:	0f b6 55 c3          	movzbl -0x3d(%ebp),%edx
   439a6:	8b 45 10             	mov    0x10(%ebp),%eax
   439a9:	29 d0                	sub    %edx,%eax
   439ab:	40                   	inc    %eax
   439ac:	c1 e8 04             	shr    $0x4,%eax
   439af:	ba 11 04 41 10       	mov    $0x10410411,%edx
   439b4:	f7 e2                	mul    %edx
   439b6:	89 d0                	mov    %edx,%eax
   439b8:	c1 e8 02             	shr    $0x2,%eax
   439bb:	66 89 45 c0          	mov    %ax,-0x40(%ebp)
   439bf:	0f b6 45 c3          	movzbl -0x3d(%ebp),%eax
   439c3:	88 45 b8             	mov    %al,-0x48(%ebp)
   439c6:	8b 45 c0             	mov    -0x40(%ebp),%eax
   439c9:	88 45 b9             	mov    %al,-0x47(%ebp)
   439cc:	0f b7 45 c0          	movzwl -0x40(%ebp),%eax
   439d0:	c1 e8 08             	shr    $0x8,%eax
   439d3:	0f b7 c0             	movzwl %ax,%eax
   439d6:	88 45 ba             	mov    %al,-0x46(%ebp)
   439d9:	c6 45 bb 00          	movb   $0x0,-0x45(%ebp)
   439dd:	c6 45 bc 00          	movb   $0x0,-0x44(%ebp)
   439e1:	c6 45 bd 00          	movb   $0x0,-0x43(%ebp)
   439e5:	0f b6 55 c3          	movzbl -0x3d(%ebp),%edx
   439e9:	8b 45 10             	mov    0x10(%ebp),%eax
   439ec:	29 d0                	sub    %edx,%eax
   439ee:	8d 58 01             	lea    0x1(%eax),%ebx
   439f1:	89 d8                	mov    %ebx,%eax
   439f3:	c1 e8 04             	shr    $0x4,%eax
   439f6:	ba 11 04 41 10       	mov    $0x10410411,%edx
   439fb:	f7 e2                	mul    %edx
   439fd:	89 d1                	mov    %edx,%ecx
   439ff:	c1 e9 02             	shr    $0x2,%ecx
   43a02:	89 c8                	mov    %ecx,%eax
   43a04:	c1 e0 06             	shl    $0x6,%eax
   43a07:	29 c8                	sub    %ecx,%eax
   43a09:	c1 e0 04             	shl    $0x4,%eax
   43a0c:	89 d9                	mov    %ebx,%ecx
   43a0e:	29 c1                	sub    %eax,%ecx
   43a10:	ba 05 41 10 04       	mov    $0x4104105,%edx
   43a15:	89 c8                	mov    %ecx,%eax
   43a17:	f7 e2                	mul    %edx
   43a19:	89 c8                	mov    %ecx,%eax
   43a1b:	29 d0                	sub    %edx,%eax
   43a1d:	d1 e8                	shr    %eax
   43a1f:	01 d0                	add    %edx,%eax
   43a21:	c1 e8 05             	shr    $0x5,%eax
   43a24:	88 45 d3             	mov    %al,-0x2d(%ebp)
   43a27:	c6 45 bf 00          	movb   $0x0,-0x41(%ebp)
   43a2b:	90                   	nop
   43a2c:	8b 45 dc             	mov    -0x24(%ebp),%eax
   43a2f:	89 04 24             	mov    %eax,(%esp)
   43a32:	e8 db f8 ff ff       	call   43312 <getchannel>
   43a37:	c7 44 24 04 07 00 00 	movl   $0x7,0x4(%esp)
   43a3e:	00 
   43a3f:	89 04 24             	mov    %eax,(%esp)
   43a42:	e8 5a fa ff ff       	call   434a1 <ide_read>
   43a47:	84 c0                	test   %al,%al
   43a49:	78 e1                	js     43a2c <ide_ata_access+0x2aa>
   43a4b:	80 7d d7 00          	cmpb   $0x0,-0x29(%ebp)
   43a4f:	75 2f                	jne    43a80 <ide_ata_access+0x2fe>
   43a51:	8b 45 cc             	mov    -0x34(%ebp),%eax
   43a54:	c0 e0 04             	shl    $0x4,%al
   43a57:	0a 45 d3             	or     -0x2d(%ebp),%al
   43a5a:	0c a0                	or     $0xa0,%al
   43a5c:	0f b6 d8             	movzbl %al,%ebx
   43a5f:	8b 45 dc             	mov    -0x24(%ebp),%eax
   43a62:	89 04 24             	mov    %eax,(%esp)
   43a65:	e8 a8 f8 ff ff       	call   43312 <getchannel>
   43a6a:	89 5c 24 08          	mov    %ebx,0x8(%esp)
   43a6e:	c7 44 24 04 06 00 00 	movl   $0x6,0x4(%esp)
   43a75:	00 
   43a76:	89 04 24             	mov    %eax,(%esp)
   43a79:	e8 40 fb ff ff       	call   435be <ide_write>
   43a7e:	eb 2d                	jmp    43aad <ide_ata_access+0x32b>
   43a80:	8b 45 cc             	mov    -0x34(%ebp),%eax
   43a83:	c0 e0 04             	shl    $0x4,%al
   43a86:	0a 45 d3             	or     -0x2d(%ebp),%al
   43a89:	0c e0                	or     $0xe0,%al
   43a8b:	0f b6 d8             	movzbl %al,%ebx
   43a8e:	8b 45 dc             	mov    -0x24(%ebp),%eax
   43a91:	89 04 24             	mov    %eax,(%esp)
   43a94:	e8 79 f8 ff ff       	call   43312 <getchannel>
   43a99:	89 5c 24 08          	mov    %ebx,0x8(%esp)
   43a9d:	c7 44 24 04 06 00 00 	movl   $0x6,0x4(%esp)
   43aa4:	00 
   43aa5:	89 04 24             	mov    %eax,(%esp)
   43aa8:	e8 11 fb ff ff       	call   435be <ide_write>
   43aad:	80 7d d7 02          	cmpb   $0x2,-0x29(%ebp)
   43ab1:	0f 85 95 00 00 00    	jne    43b4c <ide_ata_access+0x3ca>
   43ab7:	8b 45 dc             	mov    -0x24(%ebp),%eax
   43aba:	89 04 24             	mov    %eax,(%esp)
   43abd:	e8 50 f8 ff ff       	call   43312 <getchannel>
   43ac2:	c7 44 24 08 00 00 00 	movl   $0x0,0x8(%esp)
   43ac9:	00 
   43aca:	c7 44 24 04 08 00 00 	movl   $0x8,0x4(%esp)
   43ad1:	00 
   43ad2:	89 04 24             	mov    %eax,(%esp)
   43ad5:	e8 e4 fa ff ff       	call   435be <ide_write>
   43ada:	0f b6 45 bb          	movzbl -0x45(%ebp),%eax
   43ade:	0f b6 d8             	movzbl %al,%ebx
   43ae1:	8b 45 dc             	mov    -0x24(%ebp),%eax
   43ae4:	89 04 24             	mov    %eax,(%esp)
   43ae7:	e8 26 f8 ff ff       	call   43312 <getchannel>
   43aec:	89 5c 24 08          	mov    %ebx,0x8(%esp)
   43af0:	c7 44 24 04 09 00 00 	movl   $0x9,0x4(%esp)
   43af7:	00 
   43af8:	89 04 24             	mov    %eax,(%esp)
   43afb:	e8 be fa ff ff       	call   435be <ide_write>
   43b00:	0f b6 45 bc          	movzbl -0x44(%ebp),%eax
   43b04:	0f b6 d8             	movzbl %al,%ebx
   43b07:	8b 45 dc             	mov    -0x24(%ebp),%eax
   43b0a:	89 04 24             	mov    %eax,(%esp)
   43b0d:	e8 00 f8 ff ff       	call   43312 <getchannel>
   43b12:	89 5c 24 08          	mov    %ebx,0x8(%esp)
   43b16:	c7 44 24 04 0a 00 00 	movl   $0xa,0x4(%esp)
   43b1d:	00 
   43b1e:	89 04 24             	mov    %eax,(%esp)
   43b21:	e8 98 fa ff ff       	call   435be <ide_write>
   43b26:	0f b6 45 bd          	movzbl -0x43(%ebp),%eax
   43b2a:	0f b6 d8             	movzbl %al,%ebx
   43b2d:	8b 45 dc             	mov    -0x24(%ebp),%eax
   43b30:	89 04 24             	mov    %eax,(%esp)
   43b33:	e8 da f7 ff ff       	call   43312 <getchannel>
   43b38:	89 5c 24 08          	mov    %ebx,0x8(%esp)
   43b3c:	c7 44 24 04 0b 00 00 	movl   $0xb,0x4(%esp)
   43b43:	00 
   43b44:	89 04 24             	mov    %eax,(%esp)
   43b47:	e8 72 fa ff ff       	call   435be <ide_write>
   43b4c:	0f b6 5d 9c          	movzbl -0x64(%ebp),%ebx
   43b50:	8b 45 dc             	mov    -0x24(%ebp),%eax
   43b53:	89 04 24             	mov    %eax,(%esp)
   43b56:	e8 b7 f7 ff ff       	call   43312 <getchannel>
   43b5b:	89 5c 24 08          	mov    %ebx,0x8(%esp)
   43b5f:	c7 44 24 04 02 00 00 	movl   $0x2,0x4(%esp)
   43b66:	00 
   43b67:	89 04 24             	mov    %eax,(%esp)
   43b6a:	e8 4f fa ff ff       	call   435be <ide_write>
   43b6f:	0f b6 45 b8          	movzbl -0x48(%ebp),%eax
   43b73:	0f b6 d8             	movzbl %al,%ebx
   43b76:	8b 45 dc             	mov    -0x24(%ebp),%eax
   43b79:	89 04 24             	mov    %eax,(%esp)
   43b7c:	e8 91 f7 ff ff       	call   43312 <getchannel>
   43b81:	89 5c 24 08          	mov    %ebx,0x8(%esp)
   43b85:	c7 44 24 04 03 00 00 	movl   $0x3,0x4(%esp)
   43b8c:	00 
   43b8d:	89 04 24             	mov    %eax,(%esp)
   43b90:	e8 29 fa ff ff       	call   435be <ide_write>
   43b95:	0f b6 45 b9          	movzbl -0x47(%ebp),%eax
   43b99:	0f b6 d8             	movzbl %al,%ebx
   43b9c:	8b 45 dc             	mov    -0x24(%ebp),%eax
   43b9f:	89 04 24             	mov    %eax,(%esp)
   43ba2:	e8 6b f7 ff ff       	call   43312 <getchannel>
   43ba7:	89 5c 24 08          	mov    %ebx,0x8(%esp)
   43bab:	c7 44 24 04 04 00 00 	movl   $0x4,0x4(%esp)
   43bb2:	00 
   43bb3:	89 04 24             	mov    %eax,(%esp)
   43bb6:	e8 03 fa ff ff       	call   435be <ide_write>
   43bbb:	0f b6 45 ba          	movzbl -0x46(%ebp),%eax
   43bbf:	0f b6 d8             	movzbl %al,%ebx
   43bc2:	8b 45 dc             	mov    -0x24(%ebp),%eax
   43bc5:	89 04 24             	mov    %eax,(%esp)
   43bc8:	e8 45 f7 ff ff       	call   43312 <getchannel>
   43bcd:	89 5c 24 08          	mov    %ebx,0x8(%esp)
   43bd1:	c7 44 24 04 05 00 00 	movl   $0x5,0x4(%esp)
   43bd8:	00 
   43bd9:	89 04 24             	mov    %eax,(%esp)
   43bdc:	e8 dd f9 ff ff       	call   435be <ide_write>
   43be1:	80 7d d7 00          	cmpb   $0x0,-0x29(%ebp)
   43be5:	75 10                	jne    43bf7 <ide_ata_access+0x475>
   43be7:	80 7d bf 00          	cmpb   $0x0,-0x41(%ebp)
   43beb:	75 0a                	jne    43bf7 <ide_ata_access+0x475>
   43bed:	80 7d a4 00          	cmpb   $0x0,-0x5c(%ebp)
   43bf1:	75 04                	jne    43bf7 <ide_ata_access+0x475>
   43bf3:	c6 45 d6 20          	movb   $0x20,-0x2a(%ebp)
   43bf7:	80 7d d7 01          	cmpb   $0x1,-0x29(%ebp)
   43bfb:	75 10                	jne    43c0d <ide_ata_access+0x48b>
   43bfd:	80 7d bf 00          	cmpb   $0x0,-0x41(%ebp)
   43c01:	75 0a                	jne    43c0d <ide_ata_access+0x48b>
   43c03:	80 7d a4 00          	cmpb   $0x0,-0x5c(%ebp)
   43c07:	75 04                	jne    43c0d <ide_ata_access+0x48b>
   43c09:	c6 45 d6 20          	movb   $0x20,-0x2a(%ebp)
   43c0d:	80 7d d7 02          	cmpb   $0x2,-0x29(%ebp)
   43c11:	75 10                	jne    43c23 <ide_ata_access+0x4a1>
   43c13:	80 7d bf 00          	cmpb   $0x0,-0x41(%ebp)
   43c17:	75 0a                	jne    43c23 <ide_ata_access+0x4a1>
   43c19:	80 7d a4 00          	cmpb   $0x0,-0x5c(%ebp)
   43c1d:	75 04                	jne    43c23 <ide_ata_access+0x4a1>
   43c1f:	c6 45 d6 24          	movb   $0x24,-0x2a(%ebp)
   43c23:	80 7d d7 00          	cmpb   $0x0,-0x29(%ebp)
   43c27:	75 10                	jne    43c39 <ide_ata_access+0x4b7>
   43c29:	80 7d bf 01          	cmpb   $0x1,-0x41(%ebp)
   43c2d:	75 0a                	jne    43c39 <ide_ata_access+0x4b7>
   43c2f:	80 7d a4 00          	cmpb   $0x0,-0x5c(%ebp)
   43c33:	75 04                	jne    43c39 <ide_ata_access+0x4b7>
   43c35:	c6 45 d6 c8          	movb   $0xc8,-0x2a(%ebp)
   43c39:	80 7d d7 01          	cmpb   $0x1,-0x29(%ebp)
   43c3d:	75 10                	jne    43c4f <ide_ata_access+0x4cd>
   43c3f:	80 7d bf 01          	cmpb   $0x1,-0x41(%ebp)
   43c43:	75 0a                	jne    43c4f <ide_ata_access+0x4cd>
   43c45:	80 7d a4 00          	cmpb   $0x0,-0x5c(%ebp)
   43c49:	75 04                	jne    43c4f <ide_ata_access+0x4cd>
   43c4b:	c6 45 d6 c8          	movb   $0xc8,-0x2a(%ebp)
   43c4f:	80 7d d7 02          	cmpb   $0x2,-0x29(%ebp)
   43c53:	75 10                	jne    43c65 <ide_ata_access+0x4e3>
   43c55:	80 7d bf 01          	cmpb   $0x1,-0x41(%ebp)
   43c59:	75 0a                	jne    43c65 <ide_ata_access+0x4e3>
   43c5b:	80 7d a4 00          	cmpb   $0x0,-0x5c(%ebp)
   43c5f:	75 04                	jne    43c65 <ide_ata_access+0x4e3>
   43c61:	c6 45 d6 25          	movb   $0x25,-0x2a(%ebp)
   43c65:	80 7d d7 00          	cmpb   $0x0,-0x29(%ebp)
   43c69:	75 10                	jne    43c7b <ide_ata_access+0x4f9>
   43c6b:	80 7d bf 00          	cmpb   $0x0,-0x41(%ebp)
   43c6f:	75 0a                	jne    43c7b <ide_ata_access+0x4f9>
   43c71:	80 7d a4 01          	cmpb   $0x1,-0x5c(%ebp)
   43c75:	75 04                	jne    43c7b <ide_ata_access+0x4f9>
   43c77:	c6 45 d6 30          	movb   $0x30,-0x2a(%ebp)
   43c7b:	80 7d d7 01          	cmpb   $0x1,-0x29(%ebp)
   43c7f:	75 10                	jne    43c91 <ide_ata_access+0x50f>
   43c81:	80 7d bf 00          	cmpb   $0x0,-0x41(%ebp)
   43c85:	75 0a                	jne    43c91 <ide_ata_access+0x50f>
   43c87:	80 7d a4 01          	cmpb   $0x1,-0x5c(%ebp)
   43c8b:	75 04                	jne    43c91 <ide_ata_access+0x50f>
   43c8d:	c6 45 d6 30          	movb   $0x30,-0x2a(%ebp)
   43c91:	80 7d d7 02          	cmpb   $0x2,-0x29(%ebp)
   43c95:	75 10                	jne    43ca7 <ide_ata_access+0x525>
   43c97:	80 7d bf 00          	cmpb   $0x0,-0x41(%ebp)
   43c9b:	75 0a                	jne    43ca7 <ide_ata_access+0x525>
   43c9d:	80 7d a4 01          	cmpb   $0x1,-0x5c(%ebp)
   43ca1:	75 04                	jne    43ca7 <ide_ata_access+0x525>
   43ca3:	c6 45 d6 34          	movb   $0x34,-0x2a(%ebp)
   43ca7:	80 7d d7 00          	cmpb   $0x0,-0x29(%ebp)
   43cab:	75 10                	jne    43cbd <ide_ata_access+0x53b>
   43cad:	80 7d bf 01          	cmpb   $0x1,-0x41(%ebp)
   43cb1:	75 0a                	jne    43cbd <ide_ata_access+0x53b>
   43cb3:	80 7d a4 01          	cmpb   $0x1,-0x5c(%ebp)
   43cb7:	75 04                	jne    43cbd <ide_ata_access+0x53b>
   43cb9:	c6 45 d6 ca          	movb   $0xca,-0x2a(%ebp)
   43cbd:	80 7d d7 01          	cmpb   $0x1,-0x29(%ebp)
   43cc1:	75 10                	jne    43cd3 <ide_ata_access+0x551>
   43cc3:	80 7d bf 01          	cmpb   $0x1,-0x41(%ebp)
   43cc7:	75 0a                	jne    43cd3 <ide_ata_access+0x551>
   43cc9:	80 7d a4 01          	cmpb   $0x1,-0x5c(%ebp)
   43ccd:	75 04                	jne    43cd3 <ide_ata_access+0x551>
   43ccf:	c6 45 d6 ca          	movb   $0xca,-0x2a(%ebp)
   43cd3:	80 7d d7 02          	cmpb   $0x2,-0x29(%ebp)
   43cd7:	75 10                	jne    43ce9 <ide_ata_access+0x567>
   43cd9:	80 7d bf 01          	cmpb   $0x1,-0x41(%ebp)
   43cdd:	75 0a                	jne    43ce9 <ide_ata_access+0x567>
   43cdf:	80 7d a4 01          	cmpb   $0x1,-0x5c(%ebp)
   43ce3:	75 04                	jne    43ce9 <ide_ata_access+0x567>
   43ce5:	c6 45 d6 35          	movb   $0x35,-0x2a(%ebp)
   43ce9:	0f b6 5d d6          	movzbl -0x2a(%ebp),%ebx
   43ced:	8b 45 dc             	mov    -0x24(%ebp),%eax
   43cf0:	89 04 24             	mov    %eax,(%esp)
   43cf3:	e8 1a f6 ff ff       	call   43312 <getchannel>
   43cf8:	89 5c 24 08          	mov    %ebx,0x8(%esp)
   43cfc:	c7 44 24 04 07 00 00 	movl   $0x7,0x4(%esp)
   43d03:	00 
   43d04:	89 04 24             	mov    %eax,(%esp)
   43d07:	e8 b2 f8 ff ff       	call   435be <ide_write>
   43d0c:	80 7d bf 00          	cmpb   $0x0,-0x41(%ebp)
   43d10:	0f 85 27 01 00 00    	jne    43e3d <ide_ata_access+0x6bb>
   43d16:	80 7d a4 00          	cmpb   $0x0,-0x5c(%ebp)
   43d1a:	75 73                	jne    43d8f <ide_ata_access+0x60d>
   43d1c:	66 c7 45 d4 00 00    	movw   $0x0,-0x2c(%ebp)
   43d22:	eb 57                	jmp    43d7b <ide_ata_access+0x5f9>
   43d24:	8b 45 dc             	mov    -0x24(%ebp),%eax
   43d27:	89 04 24             	mov    %eax,(%esp)
   43d2a:	e8 e3 f5 ff ff       	call   43312 <getchannel>
   43d2f:	c7 44 24 04 01 00 00 	movl   $0x1,0x4(%esp)
   43d36:	00 
   43d37:	89 04 24             	mov    %eax,(%esp)
   43d3a:	e8 b1 f9 ff ff       	call   436f0 <ide_polling>
   43d3f:	88 45 be             	mov    %al,-0x42(%ebp)
   43d42:	80 7d be 00          	cmpb   $0x0,-0x42(%ebp)
   43d46:	74 09                	je     43d51 <ide_ata_access+0x5cf>
   43d48:	0f b6 45 be          	movzbl -0x42(%ebp),%eax
   43d4c:	e9 ee 00 00 00       	jmp    43e3f <ide_ata_access+0x6bd>
   43d51:	66 06                	pushw  %es
   43d53:	8b 45 98             	mov    -0x68(%ebp),%eax
   43d56:	8e c0                	mov    %eax,%es
   43d58:	8b 45 c4             	mov    -0x3c(%ebp),%eax
   43d5b:	8b 55 c8             	mov    -0x38(%ebp),%edx
   43d5e:	8b 5d 1c             	mov    0x1c(%ebp),%ebx
   43d61:	89 c1                	mov    %eax,%ecx
   43d63:	89 df                	mov    %ebx,%edi
   43d65:	66 f3 6d             	rep insw (%dx),%es:(%edi)
   43d68:	66 07                	popw   %es
   43d6a:	8b 45 c4             	mov    -0x3c(%ebp),%eax
   43d6d:	01 c0                	add    %eax,%eax
   43d6f:	01 45 1c             	add    %eax,0x1c(%ebp)
   43d72:	0f b7 45 d4          	movzwl -0x2c(%ebp),%eax
   43d76:	40                   	inc    %eax
   43d77:	66 89 45 d4          	mov    %ax,-0x2c(%ebp)
   43d7b:	0f b6 45 9c          	movzbl -0x64(%ebp),%eax
   43d7f:	0f b7 c0             	movzwl %ax,%eax
   43d82:	0f b7 55 d4          	movzwl -0x2c(%ebp),%edx
   43d86:	39 c2                	cmp    %eax,%edx
   43d88:	72 9a                	jb     43d24 <ide_ata_access+0x5a2>
   43d8a:	e9 ae 00 00 00       	jmp    43e3d <ide_ata_access+0x6bb>
   43d8f:	66 c7 45 d4 00 00    	movw   $0x0,-0x2c(%ebp)
   43d95:	eb 45                	jmp    43ddc <ide_ata_access+0x65a>
   43d97:	8b 45 dc             	mov    -0x24(%ebp),%eax
   43d9a:	89 04 24             	mov    %eax,(%esp)
   43d9d:	e8 70 f5 ff ff       	call   43312 <getchannel>
   43da2:	c7 44 24 04 00 00 00 	movl   $0x0,0x4(%esp)
   43da9:	00 
   43daa:	89 04 24             	mov    %eax,(%esp)
   43dad:	e8 3e f9 ff ff       	call   436f0 <ide_polling>
   43db2:	66 1e                	pushw  %ds
   43db4:	8b 45 98             	mov    -0x68(%ebp),%eax
   43db7:	8e d8                	mov    %eax,%ds
   43db9:	8b 45 c4             	mov    -0x3c(%ebp),%eax
   43dbc:	8b 55 c8             	mov    -0x38(%ebp),%edx
   43dbf:	8b 5d 1c             	mov    0x1c(%ebp),%ebx
   43dc2:	89 c1                	mov    %eax,%ecx
   43dc4:	89 de                	mov    %ebx,%esi
   43dc6:	66 f3 6f             	rep outsw %ds:(%esi),(%dx)
   43dc9:	66 1f                	popw   %ds
   43dcb:	8b 45 c4             	mov    -0x3c(%ebp),%eax
   43dce:	01 c0                	add    %eax,%eax
   43dd0:	01 45 1c             	add    %eax,0x1c(%ebp)
   43dd3:	0f b7 45 d4          	movzwl -0x2c(%ebp),%eax
   43dd7:	40                   	inc    %eax
   43dd8:	66 89 45 d4          	mov    %ax,-0x2c(%ebp)
   43ddc:	0f b6 45 9c          	movzbl -0x64(%ebp),%eax
   43de0:	0f b7 c0             	movzwl %ax,%eax
   43de3:	0f b7 55 d4          	movzwl -0x2c(%ebp),%edx
   43de7:	39 c2                	cmp    %eax,%edx
   43de9:	72 ac                	jb     43d97 <ide_ata_access+0x615>
   43deb:	c6 45 b5 e7          	movb   $0xe7,-0x4b(%ebp)
   43def:	c6 45 b6 e7          	movb   $0xe7,-0x4a(%ebp)
   43df3:	c6 45 b7 ea          	movb   $0xea,-0x49(%ebp)
   43df7:	0f b6 45 d7          	movzbl -0x29(%ebp),%eax
   43dfb:	0f b6 44 05 b5       	movzbl -0x4b(%ebp,%eax,1),%eax
   43e00:	0f b6 d8             	movzbl %al,%ebx
   43e03:	8b 45 dc             	mov    -0x24(%ebp),%eax
   43e06:	89 04 24             	mov    %eax,(%esp)
   43e09:	e8 04 f5 ff ff       	call   43312 <getchannel>
   43e0e:	89 5c 24 08          	mov    %ebx,0x8(%esp)
   43e12:	c7 44 24 04 07 00 00 	movl   $0x7,0x4(%esp)
   43e19:	00 
   43e1a:	89 04 24             	mov    %eax,(%esp)
   43e1d:	e8 9c f7 ff ff       	call   435be <ide_write>
   43e22:	8b 45 dc             	mov    -0x24(%ebp),%eax
   43e25:	89 04 24             	mov    %eax,(%esp)
   43e28:	e8 e5 f4 ff ff       	call   43312 <getchannel>
   43e2d:	c7 44 24 04 00 00 00 	movl   $0x0,0x4(%esp)
   43e34:	00 
   43e35:	89 04 24             	mov    %eax,(%esp)
   43e38:	e8 b3 f8 ff ff       	call   436f0 <ide_polling>
   43e3d:	b0 00                	mov    $0x0,%al
   43e3f:	83 c4 6c             	add    $0x6c,%esp
   43e42:	5b                   	pop    %ebx
   43e43:	5e                   	pop    %esi
   43e44:	5f                   	pop    %edi
   43e45:	5d                   	pop    %ebp
   43e46:	c3                   	ret    

00043e47 <ide_wait_irq>:
   43e47:	55                   	push   %ebp
   43e48:	89 e5                	mov    %esp,%ebp
   43e4a:	90                   	nop
   43e4b:	0f b6 05 20 cf 04 00 	movzbl 0x4cf20,%eax
   43e52:	84 c0                	test   %al,%al
   43e54:	74 f5                	je     43e4b <ide_wait_irq+0x4>
   43e56:	c6 05 20 cf 04 00 00 	movb   $0x0,0x4cf20
   43e5d:	90                   	nop
   43e5e:	5d                   	pop    %ebp
   43e5f:	c3                   	ret    

00043e60 <ide_atapi_wait>:
   43e60:	55                   	push   %ebp
   43e61:	89 e5                	mov    %esp,%ebp
   43e63:	83 ec 28             	sub    $0x28,%esp

00043e66 <workaround>:
   43e66:	8b 45 08             	mov    0x8(%ebp),%eax
   43e69:	89 04 24             	mov    %eax,(%esp)
   43e6c:	e8 a1 f4 ff ff       	call   43312 <getchannel>
   43e71:	c7 44 24 04 07 00 00 	movl   $0x7,0x4(%esp)
   43e78:	00 
   43e79:	89 04 24             	mov    %eax,(%esp)
   43e7c:	e8 20 f6 ff ff       	call   434a1 <ide_read>
   43e81:	24 88                	and    $0x88,%al
   43e83:	88 45 f7             	mov    %al,-0x9(%ebp)
   43e86:	83 7d f7 00          	cmpl   $0x0,-0x9(%ebp)
   43e8a:	74 da                	je     43e66 <workaround>
   43e8c:	90                   	nop
   43e8d:	89 ec                	mov    %ebp,%esp
   43e8f:	5d                   	pop    %ebp
   43e90:	c3                   	ret    

00043e91 <ide_atapi_read>:
   43e91:	55                   	push   %ebp
   43e92:	89 e5                	mov    %esp,%ebp
   43e94:	57                   	push   %edi
   43e95:	56                   	push   %esi
   43e96:	53                   	push   %ebx
   43e97:	83 ec 4c             	sub    $0x4c,%esp
   43e9a:	8b 55 08             	mov    0x8(%ebp),%edx
   43e9d:	8b 4d 10             	mov    0x10(%ebp),%ecx
   43ea0:	8b 45 14             	mov    0x14(%ebp),%eax
   43ea3:	88 55 c4             	mov    %dl,-0x3c(%ebp)
   43ea6:	88 ca                	mov    %cl,%dl
   43ea8:	88 55 c0             	mov    %dl,-0x40(%ebp)
   43eab:	66 89 45 bc          	mov    %ax,-0x44(%ebp)
   43eaf:	8b 45 1c             	mov    0x1c(%ebp),%eax
   43eb2:	89 04 24             	mov    %eax,(%esp)
   43eb5:	e8 58 f4 ff ff       	call   43312 <getchannel>
   43eba:	89 c1                	mov    %eax,%ecx
   43ebc:	0f b6 55 c4          	movzbl -0x3c(%ebp),%edx
   43ec0:	89 d0                	mov    %edx,%eax
   43ec2:	c1 e0 03             	shl    $0x3,%eax
   43ec5:	01 d0                	add    %edx,%eax
   43ec7:	c1 e0 03             	shl    $0x3,%eax
   43eca:	01 c8                	add    %ecx,%eax
   43ecc:	83 c0 20             	add    $0x20,%eax
   43ecf:	0f b6 00             	movzbl (%eax),%eax
   43ed2:	0f b6 c0             	movzbl %al,%eax
   43ed5:	89 45 dc             	mov    %eax,-0x24(%ebp)
   43ed8:	8b 45 1c             	mov    0x1c(%ebp),%eax
   43edb:	89 04 24             	mov    %eax,(%esp)
   43ede:	e8 2f f4 ff ff       	call   43312 <getchannel>
   43ee3:	0f b7 00             	movzwl (%eax),%eax
   43ee6:	89 45 d8             	mov    %eax,-0x28(%ebp)
   43ee9:	c7 45 d4 00 04 00 00 	movl   $0x400,-0x2c(%ebp)
   43ef0:	8b 45 1c             	mov    0x1c(%ebp),%eax
   43ef3:	89 04 24             	mov    %eax,(%esp)
   43ef6:	e8 17 f4 ff ff       	call   43312 <getchannel>
   43efb:	89 45 d0             	mov    %eax,-0x30(%ebp)
   43efe:	b3 00                	mov    $0x0,%bl
   43f00:	88 1d 20 cf 04 00    	mov    %bl,0x4cf20
   43f06:	8b 45 1c             	mov    0x1c(%ebp),%eax
   43f09:	89 04 24             	mov    %eax,(%esp)
   43f0c:	e8 01 f4 ff ff       	call   43312 <getchannel>
   43f11:	88 58 06             	mov    %bl,0x6(%eax)
   43f14:	0f b6 40 06          	movzbl 0x6(%eax),%eax
   43f18:	0f b6 c0             	movzbl %al,%eax
   43f1b:	89 44 24 08          	mov    %eax,0x8(%esp)
   43f1f:	c7 44 24 04 0c 00 00 	movl   $0xc,0x4(%esp)
   43f26:	00 
   43f27:	8b 45 d0             	mov    -0x30(%ebp),%eax
   43f2a:	89 04 24             	mov    %eax,(%esp)
   43f2d:	e8 8c f6 ff ff       	call   435be <ide_write>
   43f32:	c6 05 bc b0 04 00 a8 	movb   $0xa8,0x4b0bc
   43f39:	c6 05 bd b0 04 00 00 	movb   $0x0,0x4b0bd
   43f40:	8b 45 0c             	mov    0xc(%ebp),%eax
   43f43:	c1 e8 18             	shr    $0x18,%eax
   43f46:	a2 be b0 04 00       	mov    %al,0x4b0be
   43f4b:	8b 45 0c             	mov    0xc(%ebp),%eax
   43f4e:	c1 e8 10             	shr    $0x10,%eax
   43f51:	a2 bf b0 04 00       	mov    %al,0x4b0bf
   43f56:	8b 45 0c             	mov    0xc(%ebp),%eax
   43f59:	c1 e8 08             	shr    $0x8,%eax
   43f5c:	a2 c0 b0 04 00       	mov    %al,0x4b0c0
   43f61:	8b 45 0c             	mov    0xc(%ebp),%eax
   43f64:	a2 c1 b0 04 00       	mov    %al,0x4b0c1
   43f69:	c6 05 c2 b0 04 00 00 	movb   $0x0,0x4b0c2
   43f70:	c6 05 c3 b0 04 00 00 	movb   $0x0,0x4b0c3
   43f77:	c6 05 c4 b0 04 00 00 	movb   $0x0,0x4b0c4
   43f7e:	0f b6 45 c0          	movzbl -0x40(%ebp),%eax
   43f82:	a2 c5 b0 04 00       	mov    %al,0x4b0c5
   43f87:	c6 05 c6 b0 04 00 00 	movb   $0x0,0x4b0c6
   43f8e:	c6 05 c7 b0 04 00 00 	movb   $0x0,0x4b0c7
   43f95:	8b 45 dc             	mov    -0x24(%ebp),%eax
   43f98:	c0 e0 04             	shl    $0x4,%al
   43f9b:	0f b6 c0             	movzbl %al,%eax
   43f9e:	89 44 24 08          	mov    %eax,0x8(%esp)
   43fa2:	c7 44 24 04 06 00 00 	movl   $0x6,0x4(%esp)
   43fa9:	00 
   43faa:	8b 45 d0             	mov    -0x30(%ebp),%eax
   43fad:	89 04 24             	mov    %eax,(%esp)
   43fb0:	e8 09 f6 ff ff       	call   435be <ide_write>
   43fb5:	c7 45 e0 00 00 00 00 	movl   $0x0,-0x20(%ebp)
   43fbc:	eb 16                	jmp    43fd4 <ide_atapi_read+0x143>
   43fbe:	c7 44 24 04 0c 00 00 	movl   $0xc,0x4(%esp)
   43fc5:	00 
   43fc6:	8b 45 d0             	mov    -0x30(%ebp),%eax
   43fc9:	89 04 24             	mov    %eax,(%esp)
   43fcc:	e8 d0 f4 ff ff       	call   434a1 <ide_read>
   43fd1:	ff 45 e0             	incl   -0x20(%ebp)
   43fd4:	83 7d e0 03          	cmpl   $0x3,-0x20(%ebp)
   43fd8:	7e e4                	jle    43fbe <ide_atapi_read+0x12d>
   43fda:	c7 44 24 08 00 00 00 	movl   $0x0,0x8(%esp)
   43fe1:	00 
   43fe2:	c7 44 24 04 01 00 00 	movl   $0x1,0x4(%esp)
   43fe9:	00 
   43fea:	8b 45 d0             	mov    -0x30(%ebp),%eax
   43fed:	89 04 24             	mov    %eax,(%esp)
   43ff0:	e8 c9 f5 ff ff       	call   435be <ide_write>
   43ff5:	8b 45 d4             	mov    -0x2c(%ebp),%eax
   43ff8:	00 c0                	add    %al,%al
   43ffa:	0f b6 c0             	movzbl %al,%eax
   43ffd:	89 44 24 08          	mov    %eax,0x8(%esp)
   44001:	c7 44 24 04 04 00 00 	movl   $0x4,0x4(%esp)
   44008:	00 
   44009:	8b 45 d0             	mov    -0x30(%ebp),%eax
   4400c:	89 04 24             	mov    %eax,(%esp)
   4400f:	e8 aa f5 ff ff       	call   435be <ide_write>
   44014:	8b 45 d4             	mov    -0x2c(%ebp),%eax
   44017:	01 c0                	add    %eax,%eax
   44019:	c1 e8 08             	shr    $0x8,%eax
   4401c:	0f b6 c0             	movzbl %al,%eax
   4401f:	89 44 24 08          	mov    %eax,0x8(%esp)
   44023:	c7 44 24 04 05 00 00 	movl   $0x5,0x4(%esp)
   4402a:	00 
   4402b:	8b 45 d0             	mov    -0x30(%ebp),%eax
   4402e:	89 04 24             	mov    %eax,(%esp)
   44031:	e8 88 f5 ff ff       	call   435be <ide_write>
   44036:	c7 44 24 08 a0 00 00 	movl   $0xa0,0x8(%esp)
   4403d:	00 
   4403e:	c7 44 24 04 07 00 00 	movl   $0x7,0x4(%esp)
   44045:	00 
   44046:	8b 45 d0             	mov    -0x30(%ebp),%eax
   44049:	89 04 24             	mov    %eax,(%esp)
   4404c:	e8 6d f5 ff ff       	call   435be <ide_write>
   44051:	8b 45 1c             	mov    0x1c(%ebp),%eax
   44054:	89 04 24             	mov    %eax,(%esp)
   44057:	e8 b6 f2 ff ff       	call   43312 <getchannel>
   4405c:	c7 44 24 04 01 00 00 	movl   $0x1,0x4(%esp)
   44063:	00 
   44064:	89 04 24             	mov    %eax,(%esp)
   44067:	e8 84 f6 ff ff       	call   436f0 <ide_polling>
   4406c:	88 45 cf             	mov    %al,-0x31(%ebp)
   4406f:	80 7d cf 00          	cmpb   $0x0,-0x31(%ebp)
   44073:	74 09                	je     4407e <ide_atapi_read+0x1ed>
   44075:	0f b6 45 cf          	movzbl -0x31(%ebp),%eax
   44079:	e9 90 00 00 00       	jmp    4410e <ide_atapi_read+0x27d>
   4407e:	b9 06 00 00 00       	mov    $0x6,%ecx
   44083:	8b 45 d8             	mov    -0x28(%ebp),%eax
   44086:	bb bc b0 04 00       	mov    $0x4b0bc,%ebx
   4408b:	89 c2                	mov    %eax,%edx
   4408d:	89 de                	mov    %ebx,%esi
   4408f:	66 f3 6f             	rep outsw %ds:(%esi),(%dx)
   44092:	c7 45 e4 00 00 00 00 	movl   $0x0,-0x1c(%ebp)
   44099:	eb 53                	jmp    440ee <ide_atapi_read+0x25d>
   4409b:	e8 a7 fd ff ff       	call   43e47 <ide_wait_irq>
   440a0:	8b 45 1c             	mov    0x1c(%ebp),%eax
   440a3:	89 04 24             	mov    %eax,(%esp)
   440a6:	e8 67 f2 ff ff       	call   43312 <getchannel>
   440ab:	c7 44 24 04 01 00 00 	movl   $0x1,0x4(%esp)
   440b2:	00 
   440b3:	89 04 24             	mov    %eax,(%esp)
   440b6:	e8 35 f6 ff ff       	call   436f0 <ide_polling>
   440bb:	88 45 cf             	mov    %al,-0x31(%ebp)
   440be:	80 7d cf 00          	cmpb   $0x0,-0x31(%ebp)
   440c2:	74 06                	je     440ca <ide_atapi_read+0x239>
   440c4:	0f b6 45 cf          	movzbl -0x31(%ebp),%eax
   440c8:	eb 44                	jmp    4410e <ide_atapi_read+0x27d>
   440ca:	66 06                	pushw  %es
   440cc:	8b 45 bc             	mov    -0x44(%ebp),%eax
   440cf:	8e c0                	mov    %eax,%es
   440d1:	8b 45 d4             	mov    -0x2c(%ebp),%eax
   440d4:	8b 55 d8             	mov    -0x28(%ebp),%edx
   440d7:	8b 5d 18             	mov    0x18(%ebp),%ebx
   440da:	89 c1                	mov    %eax,%ecx
   440dc:	89 df                	mov    %ebx,%edi
   440de:	66 f3 6d             	rep insw (%dx),%es:(%edi)
   440e1:	66 07                	popw   %es
   440e3:	8b 45 d4             	mov    -0x2c(%ebp),%eax
   440e6:	01 c0                	add    %eax,%eax
   440e8:	01 45 18             	add    %eax,0x18(%ebp)
   440eb:	ff 45 e4             	incl   -0x1c(%ebp)
   440ee:	0f b6 45 c0          	movzbl -0x40(%ebp),%eax
   440f2:	39 45 e4             	cmp    %eax,-0x1c(%ebp)
   440f5:	7c a4                	jl     4409b <ide_atapi_read+0x20a>
   440f7:	e8 4b fd ff ff       	call   43e47 <ide_wait_irq>
   440fc:	e8 a6 d5 ff ff       	call   416a7 <io_wait>
   44101:	8b 45 1c             	mov    0x1c(%ebp),%eax
   44104:	89 04 24             	mov    %eax,(%esp)
   44107:	e8 54 fd ff ff       	call   43e60 <ide_atapi_wait>
   4410c:	b0 00                	mov    $0x0,%al
   4410e:	83 c4 4c             	add    $0x4c,%esp
   44111:	5b                   	pop    %ebx
   44112:	5e                   	pop    %esi
   44113:	5f                   	pop    %edi
   44114:	5d                   	pop    %ebp
   44115:	c3                   	ret    

00044116 <ide_read_sectors>:
   44116:	55                   	push   %ebp
   44117:	89 e5                	mov    %esp,%ebp
   44119:	56                   	push   %esi
   4411a:	53                   	push   %ebx
   4411b:	83 ec 50             	sub    $0x50,%esp
   4411e:	8b 55 08             	mov    0x8(%ebp),%edx
   44121:	8b 4d 0c             	mov    0xc(%ebp),%ecx
   44124:	8b 45 14             	mov    0x14(%ebp),%eax
   44127:	88 55 d4             	mov    %dl,-0x2c(%ebp)
   4412a:	88 ca                	mov    %cl,%dl
   4412c:	88 55 d0             	mov    %dl,-0x30(%ebp)
   4412f:	66 89 45 cc          	mov    %ax,-0x34(%ebp)
   44133:	c6 45 f7 00          	movb   $0x0,-0x9(%ebp)
   44137:	a1 08 c7 04 00       	mov    0x4c708,%eax
   4413c:	89 45 e8             	mov    %eax,-0x18(%ebp)
   4413f:	e9 81 00 00 00       	jmp    441c5 <ide_read_sectors+0xaf>
   44144:	c7 45 e4 00 00 00 00 	movl   $0x0,-0x1c(%ebp)
   4414b:	eb 69                	jmp    441b6 <ide_read_sectors+0xa0>
   4414d:	8b 4d e8             	mov    -0x18(%ebp),%ecx
   44150:	8b 55 e4             	mov    -0x1c(%ebp),%edx
   44153:	89 d0                	mov    %edx,%eax
   44155:	c1 e0 03             	shl    $0x3,%eax
   44158:	01 d0                	add    %edx,%eax
   4415a:	c1 e0 03             	shl    $0x3,%eax
   4415d:	01 c8                	add    %ecx,%eax
   4415f:	83 c0 5c             	add    $0x5c,%eax
   44162:	8b 10                	mov    (%eax),%edx
   44164:	0f b6 45 d4          	movzbl -0x2c(%ebp),%eax
   44168:	39 c2                	cmp    %eax,%edx
   4416a:	75 11                	jne    4417d <ide_read_sectors+0x67>
   4416c:	8b 45 e4             	mov    -0x1c(%ebp),%eax
   4416f:	89 45 f0             	mov    %eax,-0x10(%ebp)
   44172:	8b 45 e8             	mov    -0x18(%ebp),%eax
   44175:	8b 40 10             	mov    0x10(%eax),%eax
   44178:	89 45 ec             	mov    %eax,-0x14(%ebp)
   4417b:	eb 53                	jmp    441d0 <ide_read_sectors+0xba>
   4417d:	8b 45 e8             	mov    -0x18(%ebp),%eax
   44180:	8b 48 0c             	mov    0xc(%eax),%ecx
   44183:	8b 55 e4             	mov    -0x1c(%ebp),%edx
   44186:	89 d0                	mov    %edx,%eax
   44188:	c1 e0 03             	shl    $0x3,%eax
   4418b:	01 d0                	add    %edx,%eax
   4418d:	c1 e0 03             	shl    $0x3,%eax
   44190:	01 c8                	add    %ecx,%eax
   44192:	83 c0 5c             	add    $0x5c,%eax
   44195:	8b 10                	mov    (%eax),%edx
   44197:	0f b6 45 d4          	movzbl -0x2c(%ebp),%eax
   4419b:	39 c2                	cmp    %eax,%edx
   4419d:	75 14                	jne    441b3 <ide_read_sectors+0x9d>
   4419f:	8b 45 e4             	mov    -0x1c(%ebp),%eax
   441a2:	89 45 f0             	mov    %eax,-0x10(%ebp)
   441a5:	8b 45 e8             	mov    -0x18(%ebp),%eax
   441a8:	8b 40 0c             	mov    0xc(%eax),%eax
   441ab:	8b 40 10             	mov    0x10(%eax),%eax
   441ae:	89 45 ec             	mov    %eax,-0x14(%ebp)
   441b1:	eb 1d                	jmp    441d0 <ide_read_sectors+0xba>
   441b3:	ff 45 e4             	incl   -0x1c(%ebp)
   441b6:	83 7d e4 02          	cmpl   $0x2,-0x1c(%ebp)
   441ba:	76 91                	jbe    4414d <ide_read_sectors+0x37>
   441bc:	8b 45 e8             	mov    -0x18(%ebp),%eax
   441bf:	8b 40 08             	mov    0x8(%eax),%eax
   441c2:	89 45 e8             	mov    %eax,-0x18(%ebp)
   441c5:	83 7d e8 00          	cmpl   $0x0,-0x18(%ebp)
   441c9:	0f 85 75 ff ff ff    	jne    44144 <ide_read_sectors+0x2e>
   441cf:	90                   	nop
   441d0:	83 7d e8 00          	cmpl   $0x0,-0x18(%ebp)
   441d4:	75 07                	jne    441dd <ide_read_sectors+0xc7>
   441d6:	b0 13                	mov    $0x13,%al
   441d8:	e9 76 01 00 00       	jmp    44353 <ide_read_sectors+0x23d>
   441dd:	83 7d f0 03          	cmpl   $0x3,-0x10(%ebp)
   441e1:	0f 87 68 01 00 00    	ja     4434f <ide_read_sectors+0x239>
   441e7:	8b 45 ec             	mov    -0x14(%ebp),%eax
   441ea:	89 04 24             	mov    %eax,(%esp)
   441ed:	e8 20 f1 ff ff       	call   43312 <getchannel>
   441f2:	89 c1                	mov    %eax,%ecx
   441f4:	8b 55 f0             	mov    -0x10(%ebp),%edx
   441f7:	89 d0                	mov    %edx,%eax
   441f9:	c1 e0 03             	shl    $0x3,%eax
   441fc:	01 d0                	add    %edx,%eax
   441fe:	c1 e0 03             	shl    $0x3,%eax
   44201:	01 c8                	add    %ecx,%eax
   44203:	83 c0 18             	add    $0x18,%eax
   44206:	0f b6 00             	movzbl (%eax),%eax
   44209:	84 c0                	test   %al,%al
   4420b:	0f 84 3e 01 00 00    	je     4434f <ide_read_sectors+0x239>
   44211:	0f b6 55 d0          	movzbl -0x30(%ebp),%edx
   44215:	8b 45 10             	mov    0x10(%ebp),%eax
   44218:	8d 1c 02             	lea    (%edx,%eax,1),%ebx
   4421b:	8b 45 ec             	mov    -0x14(%ebp),%eax
   4421e:	89 04 24             	mov    %eax,(%esp)
   44221:	e8 ec f0 ff ff       	call   43312 <getchannel>
   44226:	89 c1                	mov    %eax,%ecx
   44228:	8b 55 f0             	mov    -0x10(%ebp),%edx
   4422b:	89 d0                	mov    %edx,%eax
   4422d:	c1 e0 03             	shl    $0x3,%eax
   44230:	01 d0                	add    %edx,%eax
   44232:	c1 e0 03             	shl    $0x3,%eax
   44235:	01 c8                	add    %ecx,%eax
   44237:	83 c0 2c             	add    $0x2c,%eax
   4423a:	8b 00                	mov    (%eax),%eax
   4423c:	39 c3                	cmp    %eax,%ebx
   4423e:	76 2a                	jbe    4426a <ide_read_sectors+0x154>
   44240:	8b 45 ec             	mov    -0x14(%ebp),%eax
   44243:	89 04 24             	mov    %eax,(%esp)
   44246:	e8 c7 f0 ff ff       	call   43312 <getchannel>
   4424b:	89 c1                	mov    %eax,%ecx
   4424d:	8b 55 f0             	mov    -0x10(%ebp),%edx
   44250:	89 d0                	mov    %edx,%eax
   44252:	c1 e0 03             	shl    $0x3,%eax
   44255:	01 d0                	add    %edx,%eax
   44257:	c1 e0 03             	shl    $0x3,%eax
   4425a:	01 c8                	add    %ecx,%eax
   4425c:	83 c0 22             	add    $0x22,%eax
   4425f:	0f b7 00             	movzwl (%eax),%eax
   44262:	85 c0                	test   %eax,%eax
   44264:	0f 84 e5 00 00 00    	je     4434f <ide_read_sectors+0x239>
   4426a:	8b 45 ec             	mov    -0x14(%ebp),%eax
   4426d:	89 04 24             	mov    %eax,(%esp)
   44270:	e8 9d f0 ff ff       	call   43312 <getchannel>
   44275:	89 c1                	mov    %eax,%ecx
   44277:	8b 55 f0             	mov    -0x10(%ebp),%edx
   4427a:	89 d0                	mov    %edx,%eax
   4427c:	c1 e0 03             	shl    $0x3,%eax
   4427f:	01 d0                	add    %edx,%eax
   44281:	c1 e0 03             	shl    $0x3,%eax
   44284:	01 c8                	add    %ecx,%eax
   44286:	83 c0 22             	add    $0x22,%eax
   44289:	0f b7 00             	movzwl (%eax),%eax
   4428c:	85 c0                	test   %eax,%eax
   4428e:	75 3c                	jne    442cc <ide_read_sectors+0x1b6>
   44290:	0f b7 4d cc          	movzwl -0x34(%ebp),%ecx
   44294:	0f b6 55 d0          	movzbl -0x30(%ebp),%edx
   44298:	8b 45 f0             	mov    -0x10(%ebp),%eax
   4429b:	0f b6 c0             	movzbl %al,%eax
   4429e:	8b 5d 18             	mov    0x18(%ebp),%ebx
   442a1:	89 5c 24 14          	mov    %ebx,0x14(%esp)
   442a5:	89 4c 24 10          	mov    %ecx,0x10(%esp)
   442a9:	89 54 24 0c          	mov    %edx,0xc(%esp)
   442ad:	8b 55 10             	mov    0x10(%ebp),%edx
   442b0:	89 54 24 08          	mov    %edx,0x8(%esp)
   442b4:	89 44 24 04          	mov    %eax,0x4(%esp)
   442b8:	c7 04 24 00 00 00 00 	movl   $0x0,(%esp)
   442bf:	e8 be f4 ff ff       	call   43782 <ide_ata_access>
   442c4:	88 45 f7             	mov    %al,-0x9(%ebp)
   442c7:	e9 83 00 00 00       	jmp    4434f <ide_read_sectors+0x239>
   442cc:	8b 45 ec             	mov    -0x14(%ebp),%eax
   442cf:	89 04 24             	mov    %eax,(%esp)
   442d2:	e8 3b f0 ff ff       	call   43312 <getchannel>
   442d7:	89 c1                	mov    %eax,%ecx
   442d9:	8b 55 f0             	mov    -0x10(%ebp),%edx
   442dc:	89 d0                	mov    %edx,%eax
   442de:	c1 e0 03             	shl    $0x3,%eax
   442e1:	01 d0                	add    %edx,%eax
   442e3:	c1 e0 03             	shl    $0x3,%eax
   442e6:	01 c8                	add    %ecx,%eax
   442e8:	83 c0 22             	add    $0x22,%eax
   442eb:	0f b7 00             	movzwl (%eax),%eax
   442ee:	83 f8 01             	cmp    $0x1,%eax
   442f1:	75 5c                	jne    4434f <ide_read_sectors+0x239>
   442f3:	c7 45 e0 00 00 00 00 	movl   $0x0,-0x20(%ebp)
   442fa:	eb 4a                	jmp    44346 <ide_read_sectors+0x230>
   442fc:	8b 45 e0             	mov    -0x20(%ebp),%eax
   442ff:	c1 e0 0b             	shl    $0xb,%eax
   44302:	89 c2                	mov    %eax,%edx
   44304:	8b 45 18             	mov    0x18(%ebp),%eax
   44307:	8d 34 02             	lea    (%edx,%eax,1),%esi
   4430a:	0f b7 55 cc          	movzwl -0x34(%ebp),%edx
   4430e:	8b 4d e0             	mov    -0x20(%ebp),%ecx
   44311:	8b 45 10             	mov    0x10(%ebp),%eax
   44314:	8d 1c 01             	lea    (%ecx,%eax,1),%ebx
   44317:	8b 45 f0             	mov    -0x10(%ebp),%eax
   4431a:	0f b6 c0             	movzbl %al,%eax
   4431d:	8b 4d ec             	mov    -0x14(%ebp),%ecx
   44320:	89 4c 24 14          	mov    %ecx,0x14(%esp)
   44324:	89 74 24 10          	mov    %esi,0x10(%esp)
   44328:	89 54 24 0c          	mov    %edx,0xc(%esp)
   4432c:	c7 44 24 08 01 00 00 	movl   $0x1,0x8(%esp)
   44333:	00 
   44334:	89 5c 24 04          	mov    %ebx,0x4(%esp)
   44338:	89 04 24             	mov    %eax,(%esp)
   4433b:	e8 51 fb ff ff       	call   43e91 <ide_atapi_read>
   44340:	88 45 f7             	mov    %al,-0x9(%ebp)
   44343:	ff 45 e0             	incl   -0x20(%ebp)
   44346:	0f b6 45 d0          	movzbl -0x30(%ebp),%eax
   4434a:	39 45 e0             	cmp    %eax,-0x20(%ebp)
   4434d:	7c ad                	jl     442fc <ide_read_sectors+0x1e6>
   4434f:	0f b6 45 f7          	movzbl -0x9(%ebp),%eax
   44353:	83 c4 50             	add    $0x50,%esp
   44356:	5b                   	pop    %ebx
   44357:	5e                   	pop    %esi
   44358:	5d                   	pop    %ebp
   44359:	c3                   	ret    

0004435a <ide_write_sectors>:
   4435a:	55                   	push   %ebp
   4435b:	89 e5                	mov    %esp,%ebp
   4435d:	83 ec 58             	sub    $0x58,%esp
   44360:	89 5d fc             	mov    %ebx,-0x4(%ebp)
   44363:	8b 55 0c             	mov    0xc(%ebp),%edx
   44366:	8b 45 14             	mov    0x14(%ebp),%eax
   44369:	88 55 d4             	mov    %dl,-0x2c(%ebp)
   4436c:	66 89 45 d0          	mov    %ax,-0x30(%ebp)
   44370:	c6 45 f7 00          	movb   $0x0,-0x9(%ebp)
   44374:	a1 08 c7 04 00       	mov    0x4c708,%eax
   44379:	89 45 e8             	mov    %eax,-0x18(%ebp)
   4437c:	eb 48                	jmp    443c6 <ide_write_sectors+0x6c>
   4437e:	c7 45 e4 00 00 00 00 	movl   $0x0,-0x1c(%ebp)
   44385:	eb 30                	jmp    443b7 <ide_write_sectors+0x5d>
   44387:	8b 4d e8             	mov    -0x18(%ebp),%ecx
   4438a:	8b 55 e4             	mov    -0x1c(%ebp),%edx
   4438d:	89 d0                	mov    %edx,%eax
   4438f:	c1 e0 03             	shl    $0x3,%eax
   44392:	01 d0                	add    %edx,%eax
   44394:	c1 e0 03             	shl    $0x3,%eax
   44397:	01 c8                	add    %ecx,%eax
   44399:	83 c0 5c             	add    $0x5c,%eax
   4439c:	8b 00                	mov    (%eax),%eax
   4439e:	39 45 08             	cmp    %eax,0x8(%ebp)
   443a1:	75 11                	jne    443b4 <ide_write_sectors+0x5a>
   443a3:	8b 45 e4             	mov    -0x1c(%ebp),%eax
   443a6:	89 45 f0             	mov    %eax,-0x10(%ebp)
   443a9:	8b 45 e8             	mov    -0x18(%ebp),%eax
   443ac:	8b 40 10             	mov    0x10(%eax),%eax
   443af:	89 45 ec             	mov    %eax,-0x14(%ebp)
   443b2:	eb 19                	jmp    443cd <ide_write_sectors+0x73>
   443b4:	ff 45 e4             	incl   -0x1c(%ebp)
   443b7:	83 7d e4 02          	cmpl   $0x2,-0x1c(%ebp)
   443bb:	76 ca                	jbe    44387 <ide_write_sectors+0x2d>
   443bd:	8b 45 e8             	mov    -0x18(%ebp),%eax
   443c0:	8b 40 08             	mov    0x8(%eax),%eax
   443c3:	89 45 e8             	mov    %eax,-0x18(%ebp)
   443c6:	83 7d e8 00          	cmpl   $0x0,-0x18(%ebp)
   443ca:	75 b2                	jne    4437e <ide_write_sectors+0x24>
   443cc:	90                   	nop
   443cd:	83 7d e8 00          	cmpl   $0x0,-0x18(%ebp)
   443d1:	75 07                	jne    443da <ide_write_sectors+0x80>
   443d3:	b0 13                	mov    $0x13,%al
   443d5:	e9 1b 01 00 00       	jmp    444f5 <ide_write_sectors+0x19b>
   443da:	83 7d f0 03          	cmpl   $0x3,-0x10(%ebp)
   443de:	0f 87 0d 01 00 00    	ja     444f1 <ide_write_sectors+0x197>
   443e4:	8b 45 ec             	mov    -0x14(%ebp),%eax
   443e7:	89 04 24             	mov    %eax,(%esp)
   443ea:	e8 23 ef ff ff       	call   43312 <getchannel>
   443ef:	89 c1                	mov    %eax,%ecx
   443f1:	8b 55 f0             	mov    -0x10(%ebp),%edx
   443f4:	89 d0                	mov    %edx,%eax
   443f6:	c1 e0 03             	shl    $0x3,%eax
   443f9:	01 d0                	add    %edx,%eax
   443fb:	c1 e0 03             	shl    $0x3,%eax
   443fe:	01 c8                	add    %ecx,%eax
   44400:	83 c0 18             	add    $0x18,%eax
   44403:	0f b6 00             	movzbl (%eax),%eax
   44406:	84 c0                	test   %al,%al
   44408:	0f 84 e3 00 00 00    	je     444f1 <ide_write_sectors+0x197>
   4440e:	0f b6 55 d4          	movzbl -0x2c(%ebp),%edx
   44412:	8b 45 10             	mov    0x10(%ebp),%eax
   44415:	8d 1c 02             	lea    (%edx,%eax,1),%ebx
   44418:	8b 45 ec             	mov    -0x14(%ebp),%eax
   4441b:	89 04 24             	mov    %eax,(%esp)
   4441e:	e8 ef ee ff ff       	call   43312 <getchannel>
   44423:	89 c1                	mov    %eax,%ecx
   44425:	8b 55 f0             	mov    -0x10(%ebp),%edx
   44428:	89 d0                	mov    %edx,%eax
   4442a:	c1 e0 03             	shl    $0x3,%eax
   4442d:	01 d0                	add    %edx,%eax
   4442f:	c1 e0 03             	shl    $0x3,%eax
   44432:	01 c8                	add    %ecx,%eax
   44434:	83 c0 2c             	add    $0x2c,%eax
   44437:	8b 00                	mov    (%eax),%eax
   44439:	39 c3                	cmp    %eax,%ebx
   4443b:	76 2a                	jbe    44467 <ide_write_sectors+0x10d>
   4443d:	8b 45 ec             	mov    -0x14(%ebp),%eax
   44440:	89 04 24             	mov    %eax,(%esp)
   44443:	e8 ca ee ff ff       	call   43312 <getchannel>
   44448:	89 c1                	mov    %eax,%ecx
   4444a:	8b 55 f0             	mov    -0x10(%ebp),%edx
   4444d:	89 d0                	mov    %edx,%eax
   4444f:	c1 e0 03             	shl    $0x3,%eax
   44452:	01 d0                	add    %edx,%eax
   44454:	c1 e0 03             	shl    $0x3,%eax
   44457:	01 c8                	add    %ecx,%eax
   44459:	83 c0 22             	add    $0x22,%eax
   4445c:	0f b7 00             	movzwl (%eax),%eax
   4445f:	85 c0                	test   %eax,%eax
   44461:	0f 84 8a 00 00 00    	je     444f1 <ide_write_sectors+0x197>
   44467:	8b 45 ec             	mov    -0x14(%ebp),%eax
   4446a:	89 04 24             	mov    %eax,(%esp)
   4446d:	e8 a0 ee ff ff       	call   43312 <getchannel>
   44472:	89 c1                	mov    %eax,%ecx
   44474:	8b 55 f0             	mov    -0x10(%ebp),%edx
   44477:	89 d0                	mov    %edx,%eax
   44479:	c1 e0 03             	shl    $0x3,%eax
   4447c:	01 d0                	add    %edx,%eax
   4447e:	c1 e0 03             	shl    $0x3,%eax
   44481:	01 c8                	add    %ecx,%eax
   44483:	83 c0 22             	add    $0x22,%eax
   44486:	0f b7 00             	movzwl (%eax),%eax
   44489:	85 c0                	test   %eax,%eax
   4448b:	75 39                	jne    444c6 <ide_write_sectors+0x16c>
   4448d:	0f b7 4d d0          	movzwl -0x30(%ebp),%ecx
   44491:	0f b6 55 d4          	movzbl -0x2c(%ebp),%edx
   44495:	8b 45 f0             	mov    -0x10(%ebp),%eax
   44498:	0f b6 c0             	movzbl %al,%eax
   4449b:	8b 5d 18             	mov    0x18(%ebp),%ebx
   4449e:	89 5c 24 14          	mov    %ebx,0x14(%esp)
   444a2:	89 4c 24 10          	mov    %ecx,0x10(%esp)
   444a6:	89 54 24 0c          	mov    %edx,0xc(%esp)
   444aa:	8b 55 10             	mov    0x10(%ebp),%edx
   444ad:	89 54 24 08          	mov    %edx,0x8(%esp)
   444b1:	89 44 24 04          	mov    %eax,0x4(%esp)
   444b5:	c7 04 24 01 00 00 00 	movl   $0x1,(%esp)
   444bc:	e8 c1 f2 ff ff       	call   43782 <ide_ata_access>
   444c1:	88 45 f7             	mov    %al,-0x9(%ebp)
   444c4:	eb 2b                	jmp    444f1 <ide_write_sectors+0x197>
   444c6:	8b 45 ec             	mov    -0x14(%ebp),%eax
   444c9:	89 04 24             	mov    %eax,(%esp)
   444cc:	e8 41 ee ff ff       	call   43312 <getchannel>
   444d1:	89 c1                	mov    %eax,%ecx
   444d3:	8b 55 f0             	mov    -0x10(%ebp),%edx
   444d6:	89 d0                	mov    %edx,%eax
   444d8:	c1 e0 03             	shl    $0x3,%eax
   444db:	01 d0                	add    %edx,%eax
   444dd:	c1 e0 03             	shl    $0x3,%eax
   444e0:	01 c8                	add    %ecx,%eax
   444e2:	83 c0 22             	add    $0x22,%eax
   444e5:	0f b7 00             	movzwl (%eax),%eax
   444e8:	83 f8 01             	cmp    $0x1,%eax
   444eb:	75 04                	jne    444f1 <ide_write_sectors+0x197>
   444ed:	c6 45 f7 04          	movb   $0x4,-0x9(%ebp)
   444f1:	0f b6 45 f7          	movzbl -0x9(%ebp),%eax
   444f5:	8b 5d fc             	mov    -0x4(%ebp),%ebx
   444f8:	89 ec                	mov    %ebp,%esp
   444fa:	5d                   	pop    %ebp
   444fb:	c3                   	ret    

000444fc <ide_devfs_read>:
   444fc:	55                   	push   %ebp
   444fd:	89 e5                	mov    %esp,%ebp
   444ff:	83 ec 38             	sub    $0x38,%esp
   44502:	89 5d fc             	mov    %ebx,-0x4(%ebp)
   44505:	8b 45 08             	mov    0x8(%ebp),%eax
   44508:	89 04 24             	mov    %eax,(%esp)
   4450b:	e8 76 2c 00 00       	call   47186 <fd_node_find>
   44510:	8b 80 38 01 00 00    	mov    0x138(%eax),%eax
   44516:	89 45 f4             	mov    %eax,-0xc(%ebp)
   44519:	8b 45 14             	mov    0x14(%ebp),%eax
   4451c:	25 ff 01 00 00       	and    $0x1ff,%eax
   44521:	89 45 f0             	mov    %eax,-0x10(%ebp)
   44524:	c7 04 24 00 02 00 00 	movl   $0x200,(%esp)
   4452b:	e8 c1 ca ff ff       	call   40ff1 <khmalloc>
   44530:	89 45 ec             	mov    %eax,-0x14(%ebp)
   44533:	8b 55 ec             	mov    -0x14(%ebp),%edx
   44536:	8b 45 14             	mov    0x14(%ebp),%eax
   44539:	c1 e8 09             	shr    $0x9,%eax
   4453c:	89 c1                	mov    %eax,%ecx
   4453e:	8b 45 f4             	mov    -0xc(%ebp),%eax
   44541:	0f b6 c0             	movzbl %al,%eax
   44544:	89 54 24 10          	mov    %edx,0x10(%esp)
   44548:	c7 44 24 0c 10 00 00 	movl   $0x10,0xc(%esp)
   4454f:	00 
   44550:	89 4c 24 08          	mov    %ecx,0x8(%esp)
   44554:	c7 44 24 04 01 00 00 	movl   $0x1,0x4(%esp)
   4455b:	00 
   4455c:	89 04 24             	mov    %eax,(%esp)
   4455f:	e8 b2 fb ff ff       	call   44116 <ide_read_sectors>
   44564:	b8 00 02 00 00       	mov    $0x200,%eax
   44569:	2b 45 f0             	sub    -0x10(%ebp),%eax
   4456c:	8b 4d ec             	mov    -0x14(%ebp),%ecx
   4456f:	8b 55 f0             	mov    -0x10(%ebp),%edx
   44572:	01 ca                	add    %ecx,%edx
   44574:	89 44 24 08          	mov    %eax,0x8(%esp)
   44578:	89 54 24 04          	mov    %edx,0x4(%esp)
   4457c:	8b 45 0c             	mov    0xc(%ebp),%eax
   4457f:	89 04 24             	mov    %eax,(%esp)
   44582:	e8 ca d7 ff ff       	call   41d51 <memcpy>
   44587:	b8 00 02 00 00       	mov    $0x200,%eax
   4458c:	2b 45 f0             	sub    -0x10(%ebp),%eax
   4458f:	01 45 0c             	add    %eax,0xc(%ebp)
   44592:	8b 45 14             	mov    0x14(%ebp),%eax
   44595:	2b 45 f0             	sub    -0x10(%ebp),%eax
   44598:	05 00 02 00 00       	add    $0x200,%eax
   4459d:	89 45 14             	mov    %eax,0x14(%ebp)
   445a0:	8b 55 f0             	mov    -0x10(%ebp),%edx
   445a3:	8b 45 10             	mov    0x10(%ebp),%eax
   445a6:	01 d0                	add    %edx,%eax
   445a8:	2d 00 02 00 00       	sub    $0x200,%eax
   445ad:	89 45 10             	mov    %eax,0x10(%ebp)
   445b0:	8b 45 10             	mov    0x10(%ebp),%eax
   445b3:	25 ff 01 00 00       	and    $0x1ff,%eax
   445b8:	89 45 e8             	mov    %eax,-0x18(%ebp)
   445bb:	8b 4d 0c             	mov    0xc(%ebp),%ecx
   445be:	8b 45 14             	mov    0x14(%ebp),%eax
   445c1:	c1 e8 09             	shr    $0x9,%eax
   445c4:	89 c3                	mov    %eax,%ebx
   445c6:	8b 45 10             	mov    0x10(%ebp),%eax
   445c9:	c1 e8 09             	shr    $0x9,%eax
   445cc:	0f b6 d0             	movzbl %al,%edx
   445cf:	8b 45 f4             	mov    -0xc(%ebp),%eax
   445d2:	0f b6 c0             	movzbl %al,%eax
   445d5:	89 4c 24 10          	mov    %ecx,0x10(%esp)
   445d9:	c7 44 24 0c 10 00 00 	movl   $0x10,0xc(%esp)
   445e0:	00 
   445e1:	89 5c 24 08          	mov    %ebx,0x8(%esp)
   445e5:	89 54 24 04          	mov    %edx,0x4(%esp)
   445e9:	89 04 24             	mov    %eax,(%esp)
   445ec:	e8 25 fb ff ff       	call   44116 <ide_read_sectors>
   445f1:	8b 45 10             	mov    0x10(%ebp),%eax
   445f4:	01 45 14             	add    %eax,0x14(%ebp)
   445f7:	8b 55 0c             	mov    0xc(%ebp),%edx
   445fa:	8b 45 14             	mov    0x14(%ebp),%eax
   445fd:	c1 e8 09             	shr    $0x9,%eax
   44600:	89 c1                	mov    %eax,%ecx
   44602:	8b 45 f4             	mov    -0xc(%ebp),%eax
   44605:	0f b6 c0             	movzbl %al,%eax
   44608:	89 54 24 10          	mov    %edx,0x10(%esp)
   4460c:	c7 44 24 0c 10 00 00 	movl   $0x10,0xc(%esp)
   44613:	00 
   44614:	89 4c 24 08          	mov    %ecx,0x8(%esp)
   44618:	c7 44 24 04 01 00 00 	movl   $0x1,0x4(%esp)
   4461f:	00 
   44620:	89 04 24             	mov    %eax,(%esp)
   44623:	e8 ee fa ff ff       	call   44116 <ide_read_sectors>
   44628:	8b 45 10             	mov    0x10(%ebp),%eax
   4462b:	25 ff 01 00 00       	and    $0x1ff,%eax
   44630:	89 c1                	mov    %eax,%ecx
   44632:	8b 45 10             	mov    0x10(%ebp),%eax
   44635:	2b 45 e8             	sub    -0x18(%ebp),%eax
   44638:	89 c2                	mov    %eax,%edx
   4463a:	8b 45 0c             	mov    0xc(%ebp),%eax
   4463d:	01 c2                	add    %eax,%edx
   4463f:	89 4c 24 08          	mov    %ecx,0x8(%esp)
   44643:	8b 45 ec             	mov    -0x14(%ebp),%eax
   44646:	89 44 24 04          	mov    %eax,0x4(%esp)
   4464a:	89 14 24             	mov    %edx,(%esp)
   4464d:	e8 ff d6 ff ff       	call   41d51 <memcpy>
   44652:	8b 45 ec             	mov    -0x14(%ebp),%eax
   44655:	89 04 24             	mov    %eax,(%esp)
   44658:	e8 d9 c9 ff ff       	call   41036 <khfree>
   4465d:	b8 00 00 00 00       	mov    $0x0,%eax
   44662:	8b 5d fc             	mov    -0x4(%ebp),%ebx
   44665:	89 ec                	mov    %ebp,%esp
   44667:	5d                   	pop    %ebp
   44668:	c3                   	ret    

00044669 <ide_devfs_write>:
   44669:	55                   	push   %ebp
   4466a:	89 e5                	mov    %esp,%ebp
   4466c:	83 ec 38             	sub    $0x38,%esp
   4466f:	89 5d fc             	mov    %ebx,-0x4(%ebp)
   44672:	8b 45 08             	mov    0x8(%ebp),%eax
   44675:	89 04 24             	mov    %eax,(%esp)
   44678:	e8 09 2b 00 00       	call   47186 <fd_node_find>
   4467d:	8b 80 38 01 00 00    	mov    0x138(%eax),%eax
   44683:	89 45 f4             	mov    %eax,-0xc(%ebp)
   44686:	8b 45 14             	mov    0x14(%ebp),%eax
   44689:	25 ff 01 00 00       	and    $0x1ff,%eax
   4468e:	89 45 f0             	mov    %eax,-0x10(%ebp)
   44691:	c7 04 24 00 02 00 00 	movl   $0x200,(%esp)
   44698:	e8 54 c9 ff ff       	call   40ff1 <khmalloc>
   4469d:	89 45 ec             	mov    %eax,-0x14(%ebp)
   446a0:	8b 55 ec             	mov    -0x14(%ebp),%edx
   446a3:	8b 45 14             	mov    0x14(%ebp),%eax
   446a6:	c1 e8 09             	shr    $0x9,%eax
   446a9:	89 c1                	mov    %eax,%ecx
   446ab:	8b 45 f4             	mov    -0xc(%ebp),%eax
   446ae:	0f b6 c0             	movzbl %al,%eax
   446b1:	89 54 24 10          	mov    %edx,0x10(%esp)
   446b5:	c7 44 24 0c 10 00 00 	movl   $0x10,0xc(%esp)
   446bc:	00 
   446bd:	89 4c 24 08          	mov    %ecx,0x8(%esp)
   446c1:	c7 44 24 04 01 00 00 	movl   $0x1,0x4(%esp)
   446c8:	00 
   446c9:	89 04 24             	mov    %eax,(%esp)
   446cc:	e8 45 fa ff ff       	call   44116 <ide_read_sectors>
   446d1:	b8 00 02 00 00       	mov    $0x200,%eax
   446d6:	2b 45 f0             	sub    -0x10(%ebp),%eax
   446d9:	8b 4d ec             	mov    -0x14(%ebp),%ecx
   446dc:	8b 55 f0             	mov    -0x10(%ebp),%edx
   446df:	01 ca                	add    %ecx,%edx
   446e1:	89 44 24 08          	mov    %eax,0x8(%esp)
   446e5:	8b 45 0c             	mov    0xc(%ebp),%eax
   446e8:	89 44 24 04          	mov    %eax,0x4(%esp)
   446ec:	89 14 24             	mov    %edx,(%esp)
   446ef:	e8 5d d6 ff ff       	call   41d51 <memcpy>
   446f4:	8b 55 ec             	mov    -0x14(%ebp),%edx
   446f7:	8b 45 14             	mov    0x14(%ebp),%eax
   446fa:	c1 e8 09             	shr    $0x9,%eax
   446fd:	89 c1                	mov    %eax,%ecx
   446ff:	8b 45 f4             	mov    -0xc(%ebp),%eax
   44702:	89 54 24 10          	mov    %edx,0x10(%esp)
   44706:	c7 44 24 0c 10 00 00 	movl   $0x10,0xc(%esp)
   4470d:	00 
   4470e:	89 4c 24 08          	mov    %ecx,0x8(%esp)
   44712:	c7 44 24 04 01 00 00 	movl   $0x1,0x4(%esp)
   44719:	00 
   4471a:	89 04 24             	mov    %eax,(%esp)
   4471d:	e8 38 fc ff ff       	call   4435a <ide_write_sectors>
   44722:	b8 00 02 00 00       	mov    $0x200,%eax
   44727:	2b 45 f0             	sub    -0x10(%ebp),%eax
   4472a:	01 45 0c             	add    %eax,0xc(%ebp)
   4472d:	8b 45 14             	mov    0x14(%ebp),%eax
   44730:	2b 45 f0             	sub    -0x10(%ebp),%eax
   44733:	05 00 02 00 00       	add    $0x200,%eax
   44738:	89 45 14             	mov    %eax,0x14(%ebp)
   4473b:	8b 55 f0             	mov    -0x10(%ebp),%edx
   4473e:	8b 45 10             	mov    0x10(%ebp),%eax
   44741:	01 d0                	add    %edx,%eax
   44743:	2d 00 02 00 00       	sub    $0x200,%eax
   44748:	89 45 10             	mov    %eax,0x10(%ebp)
   4474b:	8b 45 10             	mov    0x10(%ebp),%eax
   4474e:	25 ff 01 00 00       	and    $0x1ff,%eax
   44753:	89 45 e8             	mov    %eax,-0x18(%ebp)
   44756:	8b 4d 0c             	mov    0xc(%ebp),%ecx
   44759:	8b 45 14             	mov    0x14(%ebp),%eax
   4475c:	c1 e8 09             	shr    $0x9,%eax
   4475f:	89 c3                	mov    %eax,%ebx
   44761:	8b 45 10             	mov    0x10(%ebp),%eax
   44764:	c1 e8 09             	shr    $0x9,%eax
   44767:	0f b6 d0             	movzbl %al,%edx
   4476a:	8b 45 f4             	mov    -0xc(%ebp),%eax
   4476d:	89 4c 24 10          	mov    %ecx,0x10(%esp)
   44771:	c7 44 24 0c 10 00 00 	movl   $0x10,0xc(%esp)
   44778:	00 
   44779:	89 5c 24 08          	mov    %ebx,0x8(%esp)
   4477d:	89 54 24 04          	mov    %edx,0x4(%esp)
   44781:	89 04 24             	mov    %eax,(%esp)
   44784:	e8 d1 fb ff ff       	call   4435a <ide_write_sectors>
   44789:	8b 45 10             	mov    0x10(%ebp),%eax
   4478c:	01 45 14             	add    %eax,0x14(%ebp)
   4478f:	8b 55 ec             	mov    -0x14(%ebp),%edx
   44792:	8b 45 14             	mov    0x14(%ebp),%eax
   44795:	c1 e8 09             	shr    $0x9,%eax
   44798:	89 c1                	mov    %eax,%ecx
   4479a:	8b 45 f4             	mov    -0xc(%ebp),%eax
   4479d:	0f b6 c0             	movzbl %al,%eax
   447a0:	89 54 24 10          	mov    %edx,0x10(%esp)
   447a4:	c7 44 24 0c 10 00 00 	movl   $0x10,0xc(%esp)
   447ab:	00 
   447ac:	89 4c 24 08          	mov    %ecx,0x8(%esp)
   447b0:	c7 44 24 04 01 00 00 	movl   $0x1,0x4(%esp)
   447b7:	00 
   447b8:	89 04 24             	mov    %eax,(%esp)
   447bb:	e8 56 f9 ff ff       	call   44116 <ide_read_sectors>
   447c0:	8b 45 10             	mov    0x10(%ebp),%eax
   447c3:	25 ff 01 00 00       	and    $0x1ff,%eax
   447c8:	89 c2                	mov    %eax,%edx
   447ca:	8b 45 10             	mov    0x10(%ebp),%eax
   447cd:	2b 45 e8             	sub    -0x18(%ebp),%eax
   447d0:	89 c1                	mov    %eax,%ecx
   447d2:	8b 45 0c             	mov    0xc(%ebp),%eax
   447d5:	01 c8                	add    %ecx,%eax
   447d7:	89 54 24 08          	mov    %edx,0x8(%esp)
   447db:	89 44 24 04          	mov    %eax,0x4(%esp)
   447df:	8b 45 ec             	mov    -0x14(%ebp),%eax
   447e2:	89 04 24             	mov    %eax,(%esp)
   447e5:	e8 67 d5 ff ff       	call   41d51 <memcpy>
   447ea:	8b 55 ec             	mov    -0x14(%ebp),%edx
   447ed:	8b 45 14             	mov    0x14(%ebp),%eax
   447f0:	c1 e8 09             	shr    $0x9,%eax
   447f3:	89 c1                	mov    %eax,%ecx
   447f5:	8b 45 f4             	mov    -0xc(%ebp),%eax
   447f8:	89 54 24 10          	mov    %edx,0x10(%esp)
   447fc:	c7 44 24 0c 10 00 00 	movl   $0x10,0xc(%esp)
   44803:	00 
   44804:	89 4c 24 08          	mov    %ecx,0x8(%esp)
   44808:	c7 44 24 04 01 00 00 	movl   $0x1,0x4(%esp)
   4480f:	00 
   44810:	89 04 24             	mov    %eax,(%esp)
   44813:	e8 42 fb ff ff       	call   4435a <ide_write_sectors>
   44818:	8b 45 ec             	mov    -0x14(%ebp),%eax
   4481b:	89 04 24             	mov    %eax,(%esp)
   4481e:	e8 13 c8 ff ff       	call   41036 <khfree>
   44823:	b8 00 00 00 00       	mov    $0x0,%eax
   44828:	8b 5d fc             	mov    -0x4(%ebp),%ebx
   4482b:	89 ec                	mov    %ebp,%esp
   4482d:	5d                   	pop    %ebp
   4482e:	c3                   	ret    

0004482f <ctrl_init>:
   4482f:	55                   	push   %ebp
   44830:	89 e5                	mov    %esp,%ebp
   44832:	56                   	push   %esi
   44833:	53                   	push   %ebx
   44834:	83 ec 30             	sub    $0x30,%esp
   44837:	c7 45 f0 00 00 00 00 	movl   $0x0,-0x10(%ebp)
   4483e:	a1 04 c7 04 00       	mov    0x4c704,%eax
   44843:	8d 50 01             	lea    0x1(%eax),%edx
   44846:	89 15 04 c7 04 00    	mov    %edx,0x4c704
   4484c:	8b 15 0c c7 04 00    	mov    0x4c70c,%edx
   44852:	89 42 10             	mov    %eax,0x10(%edx)
   44855:	8b 45 08             	mov    0x8(%ebp),%eax
   44858:	0f b7 c0             	movzwl %ax,%eax
   4485b:	83 e0 fc             	and    $0xfffffffc,%eax
   4485e:	0f b7 d0             	movzwl %ax,%edx
   44861:	83 7d 08 00          	cmpl   $0x0,0x8(%ebp)
   44865:	75 07                	jne    4486e <ctrl_init+0x3f>
   44867:	b9 f0 01 00 00       	mov    $0x1f0,%ecx
   4486c:	eb 05                	jmp    44873 <ctrl_init+0x44>
   4486e:	b9 00 00 00 00       	mov    $0x0,%ecx
   44873:	a1 0c c7 04 00       	mov    0x4c70c,%eax
   44878:	01 ca                	add    %ecx,%edx
   4487a:	0f b7 d2             	movzwl %dx,%edx
   4487d:	66 89 10             	mov    %dx,(%eax)
   44880:	8b 45 0c             	mov    0xc(%ebp),%eax
   44883:	0f b7 c0             	movzwl %ax,%eax
   44886:	83 e0 fc             	and    $0xfffffffc,%eax
   44889:	0f b7 d0             	movzwl %ax,%edx
   4488c:	83 7d 0c 00          	cmpl   $0x0,0xc(%ebp)
   44890:	75 07                	jne    44899 <ctrl_init+0x6a>
   44892:	b9 f6 03 00 00       	mov    $0x3f6,%ecx
   44897:	eb 05                	jmp    4489e <ctrl_init+0x6f>
   44899:	b9 00 00 00 00       	mov    $0x0,%ecx
   4489e:	a1 0c c7 04 00       	mov    0x4c70c,%eax
   448a3:	01 ca                	add    %ecx,%edx
   448a5:	0f b7 d2             	movzwl %dx,%edx
   448a8:	66 89 50 02          	mov    %dx,0x2(%eax)
   448ac:	8b 45 18             	mov    0x18(%ebp),%eax
   448af:	0f b7 d0             	movzwl %ax,%edx
   448b2:	a1 0c c7 04 00       	mov    0x4c70c,%eax
   448b7:	83 e2 fc             	and    $0xfffffffc,%edx
   448ba:	0f b7 d2             	movzwl %dx,%edx
   448bd:	66 89 50 04          	mov    %dx,0x4(%eax)
   448c1:	8b 1d 0c c7 04 00    	mov    0x4c70c,%ebx
   448c7:	c7 04 24 38 01 00 00 	movl   $0x138,(%esp)
   448ce:	e8 1e c7 ff ff       	call   40ff1 <khmalloc>
   448d3:	89 43 0c             	mov    %eax,0xc(%ebx)
   448d6:	8b 45 10             	mov    0x10(%ebp),%eax
   448d9:	0f b7 c0             	movzwl %ax,%eax
   448dc:	83 e0 fc             	and    $0xfffffffc,%eax
   448df:	0f b7 d0             	movzwl %ax,%edx
   448e2:	83 7d 10 00          	cmpl   $0x0,0x10(%ebp)
   448e6:	75 07                	jne    448ef <ctrl_init+0xc0>
   448e8:	b9 70 01 00 00       	mov    $0x170,%ecx
   448ed:	eb 05                	jmp    448f4 <ctrl_init+0xc5>
   448ef:	b9 00 00 00 00       	mov    $0x0,%ecx
   448f4:	a1 0c c7 04 00       	mov    0x4c70c,%eax
   448f9:	8b 40 0c             	mov    0xc(%eax),%eax
   448fc:	01 ca                	add    %ecx,%edx
   448fe:	0f b7 d2             	movzwl %dx,%edx
   44901:	66 89 10             	mov    %dx,(%eax)
   44904:	8b 45 14             	mov    0x14(%ebp),%eax
   44907:	0f b7 c0             	movzwl %ax,%eax
   4490a:	83 e0 fc             	and    $0xfffffffc,%eax
   4490d:	0f b7 d0             	movzwl %ax,%edx
   44910:	83 7d 14 00          	cmpl   $0x0,0x14(%ebp)
   44914:	75 07                	jne    4491d <ctrl_init+0xee>
   44916:	b9 76 03 00 00       	mov    $0x376,%ecx
   4491b:	eb 05                	jmp    44922 <ctrl_init+0xf3>
   4491d:	b9 00 00 00 00       	mov    $0x0,%ecx
   44922:	a1 0c c7 04 00       	mov    0x4c70c,%eax
   44927:	8b 40 0c             	mov    0xc(%eax),%eax
   4492a:	01 ca                	add    %ecx,%edx
   4492c:	0f b7 d2             	movzwl %dx,%edx
   4492f:	66 89 50 02          	mov    %dx,0x2(%eax)
   44933:	8b 45 18             	mov    0x18(%ebp),%eax
   44936:	0f b7 c0             	movzwl %ax,%eax
   44939:	83 e0 fc             	and    $0xfffffffc,%eax
   4493c:	0f b7 d0             	movzwl %ax,%edx
   4493f:	a1 0c c7 04 00       	mov    0x4c70c,%eax
   44944:	8b 40 0c             	mov    0xc(%eax),%eax
   44947:	83 c2 08             	add    $0x8,%edx
   4494a:	0f b7 d2             	movzwl %dx,%edx
   4494d:	66 89 50 04          	mov    %dx,0x4(%eax)
   44951:	a1 04 c7 04 00       	mov    0x4c704,%eax
   44956:	8d 50 01             	lea    0x1(%eax),%edx
   44959:	89 15 04 c7 04 00    	mov    %edx,0x4c704
   4495f:	8b 15 0c c7 04 00    	mov    0x4c70c,%edx
   44965:	8b 52 0c             	mov    0xc(%edx),%edx
   44968:	89 42 10             	mov    %eax,0x10(%edx)
   4496b:	a1 0c c7 04 00       	mov    0x4c70c,%eax
   44970:	c7 44 24 08 02 00 00 	movl   $0x2,0x8(%esp)
   44977:	00 
   44978:	c7 44 24 04 0c 00 00 	movl   $0xc,0x4(%esp)
   4497f:	00 
   44980:	89 04 24             	mov    %eax,(%esp)
   44983:	e8 36 ec ff ff       	call   435be <ide_write>
   44988:	a1 0c c7 04 00       	mov    0x4c70c,%eax
   4498d:	8b 40 0c             	mov    0xc(%eax),%eax
   44990:	c7 44 24 08 02 00 00 	movl   $0x2,0x8(%esp)
   44997:	00 
   44998:	c7 44 24 04 0c 00 00 	movl   $0xc,0x4(%esp)
   4499f:	00 
   449a0:	89 04 24             	mov    %eax,(%esp)
   449a3:	e8 16 ec ff ff       	call   435be <ide_write>
   449a8:	c6 45 ef 00          	movb   $0x0,-0x11(%ebp)
   449ac:	e9 2a 05 00 00       	jmp    44edb <ctrl_init+0x6ac>
   449b1:	c6 45 ee 00          	movb   $0x0,-0x12(%ebp)
   449b5:	e9 0e 05 00 00       	jmp    44ec8 <ctrl_init+0x699>
   449ba:	c6 45 ed 00          	movb   $0x0,-0x13(%ebp)
   449be:	c6 45 ec 00          	movb   $0x0,-0x14(%ebp)
   449c2:	80 7d ef 00          	cmpb   $0x0,-0x11(%ebp)
   449c6:	74 0a                	je     449d2 <ctrl_init+0x1a3>
   449c8:	a1 0c c7 04 00       	mov    0x4c70c,%eax
   449cd:	8b 48 0c             	mov    0xc(%eax),%ecx
   449d0:	eb 06                	jmp    449d8 <ctrl_init+0x1a9>
   449d2:	8b 0d 0c c7 04 00    	mov    0x4c70c,%ecx
   449d8:	8b 55 f0             	mov    -0x10(%ebp),%edx
   449db:	89 d0                	mov    %edx,%eax
   449dd:	c1 e0 03             	shl    $0x3,%eax
   449e0:	01 d0                	add    %edx,%eax
   449e2:	c1 e0 03             	shl    $0x3,%eax
   449e5:	01 c8                	add    %ecx,%eax
   449e7:	83 c0 18             	add    $0x18,%eax
   449ea:	c6 00 00             	movb   $0x0,(%eax)
   449ed:	0f be 45 ee          	movsbl -0x12(%ebp),%eax
   449f1:	c1 e0 04             	shl    $0x4,%eax
   449f4:	0c a0                	or     $0xa0,%al
   449f6:	0f b6 d0             	movzbl %al,%edx
   449f9:	80 7d ef 00          	cmpb   $0x0,-0x11(%ebp)
   449fd:	74 0a                	je     44a09 <ctrl_init+0x1da>
   449ff:	a1 0c c7 04 00       	mov    0x4c70c,%eax
   44a04:	8b 40 0c             	mov    0xc(%eax),%eax
   44a07:	eb 05                	jmp    44a0e <ctrl_init+0x1df>
   44a09:	a1 0c c7 04 00       	mov    0x4c70c,%eax
   44a0e:	89 54 24 08          	mov    %edx,0x8(%esp)
   44a12:	c7 44 24 04 06 00 00 	movl   $0x6,0x4(%esp)
   44a19:	00 
   44a1a:	89 04 24             	mov    %eax,(%esp)
   44a1d:	e8 9c eb ff ff       	call   435be <ide_write>
   44a22:	e8 80 cc ff ff       	call   416a7 <io_wait>
   44a27:	e8 7b cc ff ff       	call   416a7 <io_wait>
   44a2c:	e8 76 cc ff ff       	call   416a7 <io_wait>
   44a31:	e8 71 cc ff ff       	call   416a7 <io_wait>
   44a36:	80 7d ef 00          	cmpb   $0x0,-0x11(%ebp)
   44a3a:	74 0a                	je     44a46 <ctrl_init+0x217>
   44a3c:	a1 0c c7 04 00       	mov    0x4c70c,%eax
   44a41:	8b 40 0c             	mov    0xc(%eax),%eax
   44a44:	eb 05                	jmp    44a4b <ctrl_init+0x21c>
   44a46:	a1 0c c7 04 00       	mov    0x4c70c,%eax
   44a4b:	c7 44 24 08 ec 00 00 	movl   $0xec,0x8(%esp)
   44a52:	00 
   44a53:	c7 44 24 04 07 00 00 	movl   $0x7,0x4(%esp)
   44a5a:	00 
   44a5b:	89 04 24             	mov    %eax,(%esp)
   44a5e:	e8 5b eb ff ff       	call   435be <ide_write>
   44a63:	e8 3f cc ff ff       	call   416a7 <io_wait>
   44a68:	e8 3a cc ff ff       	call   416a7 <io_wait>
   44a6d:	e8 35 cc ff ff       	call   416a7 <io_wait>
   44a72:	e8 30 cc ff ff       	call   416a7 <io_wait>
   44a77:	e8 2b cc ff ff       	call   416a7 <io_wait>
   44a7c:	e8 26 cc ff ff       	call   416a7 <io_wait>
   44a81:	e8 21 cc ff ff       	call   416a7 <io_wait>
   44a86:	e8 1c cc ff ff       	call   416a7 <io_wait>
   44a8b:	80 7d ef 00          	cmpb   $0x0,-0x11(%ebp)
   44a8f:	74 0a                	je     44a9b <ctrl_init+0x26c>
   44a91:	a1 0c c7 04 00       	mov    0x4c70c,%eax
   44a96:	8b 40 0c             	mov    0xc(%eax),%eax
   44a99:	eb 05                	jmp    44aa0 <ctrl_init+0x271>
   44a9b:	a1 0c c7 04 00       	mov    0x4c70c,%eax
   44aa0:	c7 44 24 04 07 00 00 	movl   $0x7,0x4(%esp)
   44aa7:	00 
   44aa8:	89 04 24             	mov    %eax,(%esp)
   44aab:	e8 f1 e9 ff ff       	call   434a1 <ide_read>
   44ab0:	84 c0                	test   %al,%al
   44ab2:	0f 84 03 04 00 00    	je     44ebb <ctrl_init+0x68c>
   44ab8:	80 7d ef 00          	cmpb   $0x0,-0x11(%ebp)
   44abc:	74 0a                	je     44ac8 <ctrl_init+0x299>
   44abe:	a1 0c c7 04 00       	mov    0x4c70c,%eax
   44ac3:	8b 40 0c             	mov    0xc(%eax),%eax
   44ac6:	eb 05                	jmp    44acd <ctrl_init+0x29e>
   44ac8:	a1 0c c7 04 00       	mov    0x4c70c,%eax
   44acd:	c7 44 24 04 07 00 00 	movl   $0x7,0x4(%esp)
   44ad4:	00 
   44ad5:	89 04 24             	mov    %eax,(%esp)
   44ad8:	e8 c4 e9 ff ff       	call   434a1 <ide_read>
   44add:	88 45 df             	mov    %al,-0x21(%ebp)
   44ae0:	0f b6 45 df          	movzbl -0x21(%ebp),%eax
   44ae4:	83 e0 01             	and    $0x1,%eax
   44ae7:	85 c0                	test   %eax,%eax
   44ae9:	74 06                	je     44af1 <ctrl_init+0x2c2>
   44aeb:	c6 45 ed 01          	movb   $0x1,-0x13(%ebp)
   44aef:	eb 16                	jmp    44b07 <ctrl_init+0x2d8>
   44af1:	0f b6 45 df          	movzbl -0x21(%ebp),%eax
   44af5:	84 c0                	test   %al,%al
   44af7:	78 bf                	js     44ab8 <ctrl_init+0x289>
   44af9:	0f b6 45 df          	movzbl -0x21(%ebp),%eax
   44afd:	83 e0 08             	and    $0x8,%eax
   44b00:	85 c0                	test   %eax,%eax
   44b02:	75 02                	jne    44b06 <ctrl_init+0x2d7>
   44b04:	eb b2                	jmp    44ab8 <ctrl_init+0x289>
   44b06:	90                   	nop
   44b07:	80 7d ed 00          	cmpb   $0x0,-0x13(%ebp)
   44b0b:	0f 84 bb 00 00 00    	je     44bcc <ctrl_init+0x39d>
   44b11:	80 7d ef 00          	cmpb   $0x0,-0x11(%ebp)
   44b15:	74 0a                	je     44b21 <ctrl_init+0x2f2>
   44b17:	a1 0c c7 04 00       	mov    0x4c70c,%eax
   44b1c:	8b 40 0c             	mov    0xc(%eax),%eax
   44b1f:	eb 05                	jmp    44b26 <ctrl_init+0x2f7>
   44b21:	a1 0c c7 04 00       	mov    0x4c70c,%eax
   44b26:	c7 44 24 04 04 00 00 	movl   $0x4,0x4(%esp)
   44b2d:	00 
   44b2e:	89 04 24             	mov    %eax,(%esp)
   44b31:	e8 6b e9 ff ff       	call   434a1 <ide_read>
   44b36:	88 45 de             	mov    %al,-0x22(%ebp)
   44b39:	80 7d ef 00          	cmpb   $0x0,-0x11(%ebp)
   44b3d:	74 0a                	je     44b49 <ctrl_init+0x31a>
   44b3f:	a1 0c c7 04 00       	mov    0x4c70c,%eax
   44b44:	8b 40 0c             	mov    0xc(%eax),%eax
   44b47:	eb 05                	jmp    44b4e <ctrl_init+0x31f>
   44b49:	a1 0c c7 04 00       	mov    0x4c70c,%eax
   44b4e:	c7 44 24 04 05 00 00 	movl   $0x5,0x4(%esp)
   44b55:	00 
   44b56:	89 04 24             	mov    %eax,(%esp)
   44b59:	e8 43 e9 ff ff       	call   434a1 <ide_read>
   44b5e:	88 45 dd             	mov    %al,-0x23(%ebp)
   44b61:	80 7d de 14          	cmpb   $0x14,-0x22(%ebp)
   44b65:	75 0c                	jne    44b73 <ctrl_init+0x344>
   44b67:	80 7d dd eb          	cmpb   $0xeb,-0x23(%ebp)
   44b6b:	75 06                	jne    44b73 <ctrl_init+0x344>
   44b6d:	c6 45 ec 01          	movb   $0x1,-0x14(%ebp)
   44b71:	eb 18                	jmp    44b8b <ctrl_init+0x35c>
   44b73:	80 7d de 69          	cmpb   $0x69,-0x22(%ebp)
   44b77:	0f 85 41 03 00 00    	jne    44ebe <ctrl_init+0x68f>
   44b7d:	80 7d dd 96          	cmpb   $0x96,-0x23(%ebp)
   44b81:	0f 85 37 03 00 00    	jne    44ebe <ctrl_init+0x68f>
   44b87:	c6 45 ec 01          	movb   $0x1,-0x14(%ebp)
   44b8b:	80 7d ef 00          	cmpb   $0x0,-0x11(%ebp)
   44b8f:	74 0a                	je     44b9b <ctrl_init+0x36c>
   44b91:	a1 0c c7 04 00       	mov    0x4c70c,%eax
   44b96:	8b 40 0c             	mov    0xc(%eax),%eax
   44b99:	eb 05                	jmp    44ba0 <ctrl_init+0x371>
   44b9b:	a1 0c c7 04 00       	mov    0x4c70c,%eax
   44ba0:	c7 44 24 08 a1 00 00 	movl   $0xa1,0x8(%esp)
   44ba7:	00 
   44ba8:	c7 44 24 04 07 00 00 	movl   $0x7,0x4(%esp)
   44baf:	00 
   44bb0:	89 04 24             	mov    %eax,(%esp)
   44bb3:	e8 06 ea ff ff       	call   435be <ide_write>
   44bb8:	e8 ea ca ff ff       	call   416a7 <io_wait>
   44bbd:	e8 e5 ca ff ff       	call   416a7 <io_wait>
   44bc2:	e8 e0 ca ff ff       	call   416a7 <io_wait>
   44bc7:	e8 db ca ff ff       	call   416a7 <io_wait>
   44bcc:	ba 20 c7 04 00       	mov    $0x4c720,%edx
   44bd1:	80 7d ef 00          	cmpb   $0x0,-0x11(%ebp)
   44bd5:	74 0a                	je     44be1 <ctrl_init+0x3b2>
   44bd7:	a1 0c c7 04 00       	mov    0x4c70c,%eax
   44bdc:	8b 40 0c             	mov    0xc(%eax),%eax
   44bdf:	eb 05                	jmp    44be6 <ctrl_init+0x3b7>
   44be1:	a1 0c c7 04 00       	mov    0x4c70c,%eax
   44be6:	c7 44 24 0c 80 00 00 	movl   $0x80,0xc(%esp)
   44bed:	00 
   44bee:	89 54 24 08          	mov    %edx,0x8(%esp)
   44bf2:	c7 44 24 04 00 00 00 	movl   $0x0,0x4(%esp)
   44bf9:	00 
   44bfa:	89 04 24             	mov    %eax,(%esp)
   44bfd:	e8 5d e7 ff ff       	call   4335f <ide_read_buffer>
   44c02:	80 7d ef 00          	cmpb   $0x0,-0x11(%ebp)
   44c06:	74 0a                	je     44c12 <ctrl_init+0x3e3>
   44c08:	a1 0c c7 04 00       	mov    0x4c70c,%eax
   44c0d:	8b 48 0c             	mov    0xc(%eax),%ecx
   44c10:	eb 06                	jmp    44c18 <ctrl_init+0x3e9>
   44c12:	8b 0d 0c c7 04 00    	mov    0x4c70c,%ecx
   44c18:	8b 55 f0             	mov    -0x10(%ebp),%edx
   44c1b:	89 d0                	mov    %edx,%eax
   44c1d:	c1 e0 03             	shl    $0x3,%eax
   44c20:	01 d0                	add    %edx,%eax
   44c22:	c1 e0 03             	shl    $0x3,%eax
   44c25:	01 c8                	add    %ecx,%eax
   44c27:	83 c0 18             	add    $0x18,%eax
   44c2a:	c6 00 01             	movb   $0x1,(%eax)
   44c2d:	80 7d ef 00          	cmpb   $0x0,-0x11(%ebp)
   44c31:	74 0a                	je     44c3d <ctrl_init+0x40e>
   44c33:	a1 0c c7 04 00       	mov    0x4c70c,%eax
   44c38:	8b 58 0c             	mov    0xc(%eax),%ebx
   44c3b:	eb 06                	jmp    44c43 <ctrl_init+0x414>
   44c3d:	8b 1d 0c c7 04 00    	mov    0x4c70c,%ebx
   44c43:	0f b6 45 ec          	movzbl -0x14(%ebp),%eax
   44c47:	0f b7 d0             	movzwl %ax,%edx
   44c4a:	8b 4d f0             	mov    -0x10(%ebp),%ecx
   44c4d:	89 c8                	mov    %ecx,%eax
   44c4f:	c1 e0 03             	shl    $0x3,%eax
   44c52:	01 c8                	add    %ecx,%eax
   44c54:	c1 e0 03             	shl    $0x3,%eax
   44c57:	01 d8                	add    %ebx,%eax
   44c59:	83 c0 22             	add    $0x22,%eax
   44c5c:	66 89 10             	mov    %dx,(%eax)
   44c5f:	0f be 55 ef          	movsbl -0x11(%ebp),%edx
   44c63:	a1 04 c7 04 00       	mov    0x4c704,%eax
   44c68:	01 c2                	add    %eax,%edx
   44c6a:	80 7d ef 00          	cmpb   $0x0,-0x11(%ebp)
   44c6e:	74 0a                	je     44c7a <ctrl_init+0x44b>
   44c70:	a1 0c c7 04 00       	mov    0x4c70c,%eax
   44c75:	8b 58 0c             	mov    0xc(%eax),%ebx
   44c78:	eb 06                	jmp    44c80 <ctrl_init+0x451>
   44c7a:	8b 1d 0c c7 04 00    	mov    0x4c70c,%ebx
   44c80:	89 d1                	mov    %edx,%ecx
   44c82:	8b 55 f0             	mov    -0x10(%ebp),%edx
   44c85:	89 d0                	mov    %edx,%eax
   44c87:	c1 e0 03             	shl    $0x3,%eax
   44c8a:	01 d0                	add    %edx,%eax
   44c8c:	c1 e0 03             	shl    $0x3,%eax
   44c8f:	01 d8                	add    %ebx,%eax
   44c91:	83 c0 1c             	add    $0x1c,%eax
   44c94:	89 08                	mov    %ecx,(%eax)
   44c96:	80 7d ef 00          	cmpb   $0x0,-0x11(%ebp)
   44c9a:	74 0a                	je     44ca6 <ctrl_init+0x477>
   44c9c:	a1 0c c7 04 00       	mov    0x4c70c,%eax
   44ca1:	8b 58 0c             	mov    0xc(%eax),%ebx
   44ca4:	eb 06                	jmp    44cac <ctrl_init+0x47d>
   44ca6:	8b 1d 0c c7 04 00    	mov    0x4c70c,%ebx
   44cac:	0f b6 4d ee          	movzbl -0x12(%ebp),%ecx
   44cb0:	8b 55 f0             	mov    -0x10(%ebp),%edx
   44cb3:	89 d0                	mov    %edx,%eax
   44cb5:	c1 e0 03             	shl    $0x3,%eax
   44cb8:	01 d0                	add    %edx,%eax
   44cba:	c1 e0 03             	shl    $0x3,%eax
   44cbd:	01 d8                	add    %ebx,%eax
   44cbf:	83 c0 20             	add    $0x20,%eax
   44cc2:	88 08                	mov    %cl,(%eax)
   44cc4:	ba 20 c7 04 00       	mov    $0x4c720,%edx
   44cc9:	80 7d ef 00          	cmpb   $0x0,-0x11(%ebp)
   44ccd:	74 0a                	je     44cd9 <ctrl_init+0x4aa>
   44ccf:	a1 0c c7 04 00       	mov    0x4c70c,%eax
   44cd4:	8b 58 0c             	mov    0xc(%eax),%ebx
   44cd7:	eb 06                	jmp    44cdf <ctrl_init+0x4b0>
   44cd9:	8b 1d 0c c7 04 00    	mov    0x4c70c,%ebx
   44cdf:	0f b7 12             	movzwl (%edx),%edx
   44ce2:	8b 4d f0             	mov    -0x10(%ebp),%ecx
   44ce5:	89 c8                	mov    %ecx,%eax
   44ce7:	c1 e0 03             	shl    $0x3,%eax
   44cea:	01 c8                	add    %ecx,%eax
   44cec:	c1 e0 03             	shl    $0x3,%eax
   44cef:	01 d8                	add    %ebx,%eax
   44cf1:	83 c0 24             	add    $0x24,%eax
   44cf4:	66 89 10             	mov    %dx,(%eax)
   44cf7:	80 7d ef 00          	cmpb   $0x0,-0x11(%ebp)
   44cfb:	74 0a                	je     44d07 <ctrl_init+0x4d8>
   44cfd:	a1 0c c7 04 00       	mov    0x4c70c,%eax
   44d02:	8b 58 0c             	mov    0xc(%eax),%ebx
   44d05:	eb 06                	jmp    44d0d <ctrl_init+0x4de>
   44d07:	8b 1d 0c c7 04 00    	mov    0x4c70c,%ebx
   44d0d:	0f b7 15 82 c7 04 00 	movzwl 0x4c782,%edx
   44d14:	8b 4d f0             	mov    -0x10(%ebp),%ecx
   44d17:	89 c8                	mov    %ecx,%eax
   44d19:	c1 e0 03             	shl    $0x3,%eax
   44d1c:	01 c8                	add    %ecx,%eax
   44d1e:	c1 e0 03             	shl    $0x3,%eax
   44d21:	01 d8                	add    %ebx,%eax
   44d23:	83 c0 26             	add    $0x26,%eax
   44d26:	66 89 10             	mov    %dx,(%eax)
   44d29:	80 7d ef 00          	cmpb   $0x0,-0x11(%ebp)
   44d2d:	74 0a                	je     44d39 <ctrl_init+0x50a>
   44d2f:	a1 0c c7 04 00       	mov    0x4c70c,%eax
   44d34:	8b 58 0c             	mov    0xc(%eax),%ebx
   44d37:	eb 06                	jmp    44d3f <ctrl_init+0x510>
   44d39:	8b 1d 0c c7 04 00    	mov    0x4c70c,%ebx
   44d3f:	8b 15 c4 c7 04 00    	mov    0x4c7c4,%edx
   44d45:	8b 4d f0             	mov    -0x10(%ebp),%ecx
   44d48:	89 c8                	mov    %ecx,%eax
   44d4a:	c1 e0 03             	shl    $0x3,%eax
   44d4d:	01 c8                	add    %ecx,%eax
   44d4f:	c1 e0 03             	shl    $0x3,%eax
   44d52:	01 d8                	add    %ebx,%eax
   44d54:	83 c0 28             	add    $0x28,%eax
   44d57:	89 10                	mov    %edx,(%eax)
   44d59:	80 7d ef 00          	cmpb   $0x0,-0x11(%ebp)
   44d5d:	74 0a                	je     44d69 <ctrl_init+0x53a>
   44d5f:	a1 0c c7 04 00       	mov    0x4c70c,%eax
   44d64:	8b 48 0c             	mov    0xc(%eax),%ecx
   44d67:	eb 06                	jmp    44d6f <ctrl_init+0x540>
   44d69:	8b 0d 0c c7 04 00    	mov    0x4c70c,%ecx
   44d6f:	8b 55 f0             	mov    -0x10(%ebp),%edx
   44d72:	89 d0                	mov    %edx,%eax
   44d74:	c1 e0 03             	shl    $0x3,%eax
   44d77:	01 d0                	add    %edx,%eax
   44d79:	c1 e0 03             	shl    $0x3,%eax
   44d7c:	01 c8                	add    %ecx,%eax
   44d7e:	83 c0 28             	add    $0x28,%eax
   44d81:	8b 00                	mov    (%eax),%eax
   44d83:	25 00 00 00 04       	and    $0x4000000,%eax
   44d88:	85 c0                	test   %eax,%eax
   44d8a:	74 32                	je     44dbe <ctrl_init+0x58f>
   44d8c:	80 7d ef 00          	cmpb   $0x0,-0x11(%ebp)
   44d90:	74 0a                	je     44d9c <ctrl_init+0x56d>
   44d92:	a1 0c c7 04 00       	mov    0x4c70c,%eax
   44d97:	8b 58 0c             	mov    0xc(%eax),%ebx
   44d9a:	eb 06                	jmp    44da2 <ctrl_init+0x573>
   44d9c:	8b 1d 0c c7 04 00    	mov    0x4c70c,%ebx
   44da2:	8b 15 e8 c7 04 00    	mov    0x4c7e8,%edx
   44da8:	8b 4d f0             	mov    -0x10(%ebp),%ecx
   44dab:	89 c8                	mov    %ecx,%eax
   44dad:	c1 e0 03             	shl    $0x3,%eax
   44db0:	01 c8                	add    %ecx,%eax
   44db2:	c1 e0 03             	shl    $0x3,%eax
   44db5:	01 d8                	add    %ebx,%eax
   44db7:	83 c0 2c             	add    $0x2c,%eax
   44dba:	89 10                	mov    %edx,(%eax)
   44dbc:	eb 30                	jmp    44dee <ctrl_init+0x5bf>
   44dbe:	80 7d ef 00          	cmpb   $0x0,-0x11(%ebp)
   44dc2:	74 0a                	je     44dce <ctrl_init+0x59f>
   44dc4:	a1 0c c7 04 00       	mov    0x4c70c,%eax
   44dc9:	8b 58 0c             	mov    0xc(%eax),%ebx
   44dcc:	eb 06                	jmp    44dd4 <ctrl_init+0x5a5>
   44dce:	8b 1d 0c c7 04 00    	mov    0x4c70c,%ebx
   44dd4:	8b 15 98 c7 04 00    	mov    0x4c798,%edx
   44dda:	8b 4d f0             	mov    -0x10(%ebp),%ecx
   44ddd:	89 c8                	mov    %ecx,%eax
   44ddf:	c1 e0 03             	shl    $0x3,%eax
   44de2:	01 c8                	add    %ecx,%eax
   44de4:	c1 e0 03             	shl    $0x3,%eax
   44de7:	01 d8                	add    %ebx,%eax
   44de9:	83 c0 2c             	add    $0x2c,%eax
   44dec:	89 10                	mov    %edx,(%eax)
   44dee:	c7 45 f4 00 00 00 00 	movl   $0x0,-0xc(%ebp)
   44df5:	e9 84 00 00 00       	jmp    44e7e <ctrl_init+0x64f>
   44dfa:	8b 45 f4             	mov    -0xc(%ebp),%eax
   44dfd:	83 c0 37             	add    $0x37,%eax
   44e00:	0f b6 90 20 c7 04 00 	movzbl 0x4c720(%eax),%edx
   44e07:	80 7d ef 00          	cmpb   $0x0,-0x11(%ebp)
   44e0b:	74 0a                	je     44e17 <ctrl_init+0x5e8>
   44e0d:	a1 0c c7 04 00       	mov    0x4c70c,%eax
   44e12:	8b 48 0c             	mov    0xc(%eax),%ecx
   44e15:	eb 06                	jmp    44e1d <ctrl_init+0x5ee>
   44e17:	8b 0d 0c c7 04 00    	mov    0x4c70c,%ecx
   44e1d:	88 d3                	mov    %dl,%bl
   44e1f:	8b 55 f0             	mov    -0x10(%ebp),%edx
   44e22:	89 d0                	mov    %edx,%eax
   44e24:	c1 e0 03             	shl    $0x3,%eax
   44e27:	01 d0                	add    %edx,%eax
   44e29:	c1 e0 03             	shl    $0x3,%eax
   44e2c:	8d 14 01             	lea    (%ecx,%eax,1),%edx
   44e2f:	8b 45 f4             	mov    -0xc(%ebp),%eax
   44e32:	01 d0                	add    %edx,%eax
   44e34:	83 c0 30             	add    $0x30,%eax
   44e37:	88 18                	mov    %bl,(%eax)
   44e39:	8b 45 f4             	mov    -0xc(%ebp),%eax
   44e3c:	83 c0 36             	add    $0x36,%eax
   44e3f:	0f b6 90 20 c7 04 00 	movzbl 0x4c720(%eax),%edx
   44e46:	80 7d ef 00          	cmpb   $0x0,-0x11(%ebp)
   44e4a:	74 0a                	je     44e56 <ctrl_init+0x627>
   44e4c:	a1 0c c7 04 00       	mov    0x4c70c,%eax
   44e51:	8b 48 0c             	mov    0xc(%eax),%ecx
   44e54:	eb 06                	jmp    44e5c <ctrl_init+0x62d>
   44e56:	8b 0d 0c c7 04 00    	mov    0x4c70c,%ecx
   44e5c:	8b 45 f4             	mov    -0xc(%ebp),%eax
   44e5f:	8d 70 01             	lea    0x1(%eax),%esi
   44e62:	88 d3                	mov    %dl,%bl
   44e64:	8b 55 f0             	mov    -0x10(%ebp),%edx
   44e67:	89 d0                	mov    %edx,%eax
   44e69:	c1 e0 03             	shl    $0x3,%eax
   44e6c:	01 d0                	add    %edx,%eax
   44e6e:	c1 e0 03             	shl    $0x3,%eax
   44e71:	01 c8                	add    %ecx,%eax
   44e73:	01 f0                	add    %esi,%eax
   44e75:	83 c0 30             	add    $0x30,%eax
   44e78:	88 18                	mov    %bl,(%eax)
   44e7a:	83 45 f4 02          	addl   $0x2,-0xc(%ebp)
   44e7e:	83 7d f4 27          	cmpl   $0x27,-0xc(%ebp)
   44e82:	0f 8e 72 ff ff ff    	jle    44dfa <ctrl_init+0x5cb>
   44e88:	80 7d ef 00          	cmpb   $0x0,-0x11(%ebp)
   44e8c:	74 0a                	je     44e98 <ctrl_init+0x669>
   44e8e:	a1 0c c7 04 00       	mov    0x4c70c,%eax
   44e93:	8b 50 0c             	mov    0xc(%eax),%edx
   44e96:	eb 06                	jmp    44e9e <ctrl_init+0x66f>
   44e98:	8b 15 0c c7 04 00    	mov    0x4c70c,%edx
   44e9e:	8b 45 f0             	mov    -0x10(%ebp),%eax
   44ea1:	8d 48 01             	lea    0x1(%eax),%ecx
   44ea4:	89 c8                	mov    %ecx,%eax
   44ea6:	c1 e0 03             	shl    $0x3,%eax
   44ea9:	01 c8                	add    %ecx,%eax
   44eab:	c1 e0 03             	shl    $0x3,%eax
   44eae:	01 d0                	add    %edx,%eax
   44eb0:	83 c0 10             	add    $0x10,%eax
   44eb3:	c6 00 00             	movb   $0x0,(%eax)
   44eb6:	ff 45 f0             	incl   -0x10(%ebp)
   44eb9:	eb 04                	jmp    44ebf <ctrl_init+0x690>
   44ebb:	90                   	nop
   44ebc:	eb 01                	jmp    44ebf <ctrl_init+0x690>
   44ebe:	90                   	nop
   44ebf:	0f b6 45 ee          	movzbl -0x12(%ebp),%eax
   44ec3:	fe c0                	inc    %al
   44ec5:	88 45 ee             	mov    %al,-0x12(%ebp)
   44ec8:	80 7d ee 01          	cmpb   $0x1,-0x12(%ebp)
   44ecc:	0f 8e e8 fa ff ff    	jle    449ba <ctrl_init+0x18b>
   44ed2:	0f b6 45 ef          	movzbl -0x11(%ebp),%eax
   44ed6:	fe c0                	inc    %al
   44ed8:	88 45 ef             	mov    %al,-0x11(%ebp)
   44edb:	80 7d ef 01          	cmpb   $0x1,-0x11(%ebp)
   44edf:	0f 8e cc fa ff ff    	jle    449b1 <ctrl_init+0x182>
   44ee5:	c7 45 e8 00 00 00 00 	movl   $0x0,-0x18(%ebp)
   44eec:	e9 9a 01 00 00       	jmp    4508b <ctrl_init+0x85c>
   44ef1:	c7 45 e4 00 00 00 00 	movl   $0x0,-0x1c(%ebp)
   44ef8:	e9 81 01 00 00       	jmp    4507e <ctrl_init+0x84f>
   44efd:	83 7d e8 00          	cmpl   $0x0,-0x18(%ebp)
   44f01:	74 0a                	je     44f0d <ctrl_init+0x6de>
   44f03:	a1 0c c7 04 00       	mov    0x4c70c,%eax
   44f08:	8b 48 0c             	mov    0xc(%eax),%ecx
   44f0b:	eb 06                	jmp    44f13 <ctrl_init+0x6e4>
   44f0d:	8b 0d 0c c7 04 00    	mov    0x4c70c,%ecx
   44f13:	8b 55 e4             	mov    -0x1c(%ebp),%edx
   44f16:	89 d0                	mov    %edx,%eax
   44f18:	c1 e0 03             	shl    $0x3,%eax
   44f1b:	01 d0                	add    %edx,%eax
   44f1d:	c1 e0 03             	shl    $0x3,%eax
   44f20:	01 c8                	add    %ecx,%eax
   44f22:	83 c0 18             	add    $0x18,%eax
   44f25:	0f b6 00             	movzbl (%eax),%eax
   44f28:	3c 01                	cmp    $0x1,%al
   44f2a:	0f 85 4b 01 00 00    	jne    4507b <ctrl_init+0x84c>
   44f30:	c7 44 24 04 69 46 04 	movl   $0x44669,0x4(%esp)
   44f37:	00 
   44f38:	c7 04 24 fc 44 04 00 	movl   $0x444fc,(%esp)
   44f3f:	e8 71 1d 00 00       	call   46cb5 <devfs_int_creat>
   44f44:	89 45 e0             	mov    %eax,-0x20(%ebp)
   44f47:	83 7d e8 00          	cmpl   $0x0,-0x18(%ebp)
   44f4b:	74 0a                	je     44f57 <ctrl_init+0x728>
   44f4d:	a1 0c c7 04 00       	mov    0x4c70c,%eax
   44f52:	8b 58 0c             	mov    0xc(%eax),%ebx
   44f55:	eb 06                	jmp    44f5d <ctrl_init+0x72e>
   44f57:	8b 1d 0c c7 04 00    	mov    0x4c70c,%ebx
   44f5d:	8b 45 e0             	mov    -0x20(%ebp),%eax
   44f60:	8b 90 38 01 00 00    	mov    0x138(%eax),%edx
   44f66:	8b 4d e4             	mov    -0x1c(%ebp),%ecx
   44f69:	89 c8                	mov    %ecx,%eax
   44f6b:	c1 e0 03             	shl    $0x3,%eax
   44f6e:	01 c8                	add    %ecx,%eax
   44f70:	c1 e0 03             	shl    $0x3,%eax
   44f73:	01 d8                	add    %ebx,%eax
   44f75:	83 c0 5c             	add    $0x5c,%eax
   44f78:	89 10                	mov    %edx,(%eax)
   44f7a:	8b 45 e0             	mov    -0x20(%ebp),%eax
   44f7d:	c6 40 24 70          	movb   $0x70,0x24(%eax)
   44f81:	8b 45 e0             	mov    -0x20(%ebp),%eax
   44f84:	c6 40 25 64          	movb   $0x64,0x25(%eax)
   44f88:	8b 0d 28 cf 04 00    	mov    0x4cf28,%ecx
   44f8e:	ba 67 66 66 66       	mov    $0x66666667,%edx
   44f93:	89 c8                	mov    %ecx,%eax
   44f95:	f7 ea                	imul   %edx
   44f97:	89 d0                	mov    %edx,%eax
   44f99:	c1 f8 02             	sar    $0x2,%eax
   44f9c:	c1 f9 1f             	sar    $0x1f,%ecx
   44f9f:	89 ca                	mov    %ecx,%edx
   44fa1:	29 d0                	sub    %edx,%eax
   44fa3:	04 41                	add    $0x41,%al
   44fa5:	88 c2                	mov    %al,%dl
   44fa7:	8b 45 e0             	mov    -0x20(%ebp),%eax
   44faa:	88 50 26             	mov    %dl,0x26(%eax)
   44fad:	a1 28 cf 04 00       	mov    0x4cf28,%eax
   44fb2:	8d 50 01             	lea    0x1(%eax),%edx
   44fb5:	89 15 28 cf 04 00    	mov    %edx,0x4cf28
   44fbb:	04 61                	add    $0x61,%al
   44fbd:	88 c2                	mov    %al,%dl
   44fbf:	8b 45 e0             	mov    -0x20(%ebp),%eax
   44fc2:	88 50 27             	mov    %dl,0x27(%eax)
   44fc5:	c7 04 24 f2 d0 04 00 	movl   $0x4d0f2,(%esp)
   44fcc:	e8 0f dd ff ff       	call   42ce0 <putstring>
   44fd1:	83 7d e8 00          	cmpl   $0x0,-0x18(%ebp)
   44fd5:	74 0a                	je     44fe1 <ctrl_init+0x7b2>
   44fd7:	a1 0c c7 04 00       	mov    0x4c70c,%eax
   44fdc:	8b 48 0c             	mov    0xc(%eax),%ecx
   44fdf:	eb 06                	jmp    44fe7 <ctrl_init+0x7b8>
   44fe1:	8b 0d 0c c7 04 00    	mov    0x4c70c,%ecx
   44fe7:	8b 55 e4             	mov    -0x1c(%ebp),%edx
   44fea:	89 d0                	mov    %edx,%eax
   44fec:	c1 e0 03             	shl    $0x3,%eax
   44fef:	01 d0                	add    %edx,%eax
   44ff1:	c1 e0 03             	shl    $0x3,%eax
   44ff4:	83 c0 20             	add    $0x20,%eax
   44ff7:	01 c8                	add    %ecx,%eax
   44ff9:	83 c0 10             	add    $0x10,%eax
   44ffc:	89 04 24             	mov    %eax,(%esp)
   44fff:	e8 dc dc ff ff       	call   42ce0 <putstring>
   45004:	c7 04 24 fe d0 04 00 	movl   $0x4d0fe,(%esp)
   4500b:	e8 d0 dc ff ff       	call   42ce0 <putstring>
   45010:	83 7d e8 00          	cmpl   $0x0,-0x18(%ebp)
   45014:	74 0a                	je     45020 <ctrl_init+0x7f1>
   45016:	a1 0c c7 04 00       	mov    0x4c70c,%eax
   4501b:	8b 48 0c             	mov    0xc(%eax),%ecx
   4501e:	eb 06                	jmp    45026 <ctrl_init+0x7f7>
   45020:	8b 0d 0c c7 04 00    	mov    0x4c70c,%ecx
   45026:	8b 55 e4             	mov    -0x1c(%ebp),%edx
   45029:	89 d0                	mov    %edx,%eax
   4502b:	c1 e0 03             	shl    $0x3,%eax
   4502e:	01 d0                	add    %edx,%eax
   45030:	c1 e0 03             	shl    $0x3,%eax
   45033:	01 c8                	add    %ecx,%eax
   45035:	83 c0 5c             	add    $0x5c,%eax
   45038:	8b 00                	mov    (%eax),%eax
   4503a:	c7 44 24 04 0a 00 00 	movl   $0xa,0x4(%esp)
   45041:	00 
   45042:	89 04 24             	mov    %eax,(%esp)
   45045:	e8 fb de ff ff       	call   42f45 <putunum>
   4504a:	c7 04 24 0c d1 04 00 	movl   $0x4d10c,(%esp)
   45051:	e8 8a dc ff ff       	call   42ce0 <putstring>
   45056:	8b 45 e0             	mov    -0x20(%ebp),%eax
   45059:	83 c0 24             	add    $0x24,%eax
   4505c:	89 04 24             	mov    %eax,(%esp)
   4505f:	e8 7c dc ff ff       	call   42ce0 <putstring>
   45064:	c7 04 24 1d d1 04 00 	movl   $0x4d11d,(%esp)
   4506b:	e8 70 dc ff ff       	call   42ce0 <putstring>
   45070:	a1 00 c7 04 00       	mov    0x4c700,%eax
   45075:	40                   	inc    %eax
   45076:	a3 00 c7 04 00       	mov    %eax,0x4c700
   4507b:	ff 45 e4             	incl   -0x1c(%ebp)
   4507e:	83 7d e4 03          	cmpl   $0x3,-0x1c(%ebp)
   45082:	0f 8e 75 fe ff ff    	jle    44efd <ctrl_init+0x6ce>
   45088:	ff 45 e8             	incl   -0x18(%ebp)
   4508b:	83 7d e8 01          	cmpl   $0x1,-0x18(%ebp)
   4508f:	0f 8e 5c fe ff ff    	jle    44ef1 <ctrl_init+0x6c2>
   45095:	90                   	nop
   45096:	90                   	nop
   45097:	83 c4 30             	add    $0x30,%esp
   4509a:	5b                   	pop    %ebx
   4509b:	5e                   	pop    %esi
   4509c:	5d                   	pop    %ebp
   4509d:	c3                   	ret    

0004509e <init_ide>:
   4509e:	55                   	push   %ebp
   4509f:	89 e5                	mov    %esp,%ebp
   450a1:	57                   	push   %edi
   450a2:	56                   	push   %esi
   450a3:	53                   	push   %ebx
   450a4:	83 ec 4c             	sub    $0x4c,%esp
   450a7:	c7 04 24 1f d1 04 00 	movl   $0x4d11f,(%esp)
   450ae:	e8 2d dc ff ff       	call   42ce0 <putstring>
   450b3:	a1 30 cf 04 00       	mov    0x4cf30,%eax
   450b8:	89 45 e4             	mov    %eax,-0x1c(%ebp)
   450bb:	c7 04 24 38 01 00 00 	movl   $0x138,(%esp)
   450c2:	e8 2a bf ff ff       	call   40ff1 <khmalloc>
   450c7:	a3 0c c7 04 00       	mov    %eax,0x4c70c
   450cc:	a1 0c c7 04 00       	mov    0x4c70c,%eax
   450d1:	a3 08 c7 04 00       	mov    %eax,0x4c708
   450d6:	e9 1d 03 00 00       	jmp    453f8 <init_ide+0x35a>
   450db:	8b 45 e4             	mov    -0x1c(%ebp),%eax
   450de:	0f b6 40 03          	movzbl 0x3(%eax),%eax
   450e2:	3c 01                	cmp    $0x1,%al
   450e4:	0f 85 05 03 00 00    	jne    453ef <init_ide+0x351>
   450ea:	8b 45 e4             	mov    -0x1c(%ebp),%eax
   450ed:	0f b6 40 04          	movzbl 0x4(%eax),%eax
   450f1:	3c 01                	cmp    $0x1,%al
   450f3:	0f 85 f6 02 00 00    	jne    453ef <init_ide+0x351>
   450f9:	c7 04 24 2d d1 04 00 	movl   $0x4d12d,(%esp)
   45100:	e8 db db ff ff       	call   42ce0 <putstring>
   45105:	8b 45 e4             	mov    -0x1c(%ebp),%eax
   45108:	0f b6 00             	movzbl (%eax),%eax
   4510b:	0f b6 c0             	movzbl %al,%eax
   4510e:	c7 44 24 04 0a 00 00 	movl   $0xa,0x4(%esp)
   45115:	00 
   45116:	89 04 24             	mov    %eax,(%esp)
   45119:	e8 27 de ff ff       	call   42f45 <putunum>
   4511e:	c7 04 24 4b d1 04 00 	movl   $0x4d14b,(%esp)
   45125:	e8 b6 db ff ff       	call   42ce0 <putstring>
   4512a:	8b 45 e4             	mov    -0x1c(%ebp),%eax
   4512d:	0f b6 40 01          	movzbl 0x1(%eax),%eax
   45131:	0f b6 c0             	movzbl %al,%eax
   45134:	c7 44 24 04 0a 00 00 	movl   $0xa,0x4(%esp)
   4513b:	00 
   4513c:	89 04 24             	mov    %eax,(%esp)
   4513f:	e8 01 de ff ff       	call   42f45 <putunum>
   45144:	c7 04 24 51 d1 04 00 	movl   $0x4d151,(%esp)
   4514b:	e8 90 db ff ff       	call   42ce0 <putstring>
   45150:	8b 45 e4             	mov    -0x1c(%ebp),%eax
   45153:	0f b6 40 02          	movzbl 0x2(%eax),%eax
   45157:	0f b6 c0             	movzbl %al,%eax
   4515a:	c7 44 24 04 0a 00 00 	movl   $0xa,0x4(%esp)
   45161:	00 
   45162:	89 04 24             	mov    %eax,(%esp)
   45165:	e8 db dd ff ff       	call   42f45 <putunum>
   4516a:	c7 04 24 1d d1 04 00 	movl   $0x4d11d,(%esp)
   45171:	e8 6a db ff ff       	call   42ce0 <putstring>
   45176:	8b 45 e4             	mov    -0x1c(%ebp),%eax
   45179:	0f b6 40 02          	movzbl 0x2(%eax),%eax
   4517d:	0f b6 c8             	movzbl %al,%ecx
   45180:	8b 45 e4             	mov    -0x1c(%ebp),%eax
   45183:	0f b6 40 01          	movzbl 0x1(%eax),%eax
   45187:	0f b6 d0             	movzbl %al,%edx
   4518a:	8b 45 e4             	mov    -0x1c(%ebp),%eax
   4518d:	0f b6 00             	movzbl (%eax),%eax
   45190:	0f b6 c0             	movzbl %al,%eax
   45193:	c7 44 24 0c 22 00 00 	movl   $0x22,0xc(%esp)
   4519a:	00 
   4519b:	89 4c 24 08          	mov    %ecx,0x8(%esp)
   4519f:	89 54 24 04          	mov    %edx,0x4(%esp)
   451a3:	89 04 24             	mov    %eax,(%esp)
   451a6:	e8 f4 03 00 00       	call   4559f <readconfword>
   451ab:	0f b7 c0             	movzwl %ax,%eax
   451ae:	c1 e0 10             	shl    $0x10,%eax
   451b1:	89 c3                	mov    %eax,%ebx
   451b3:	8b 45 e4             	mov    -0x1c(%ebp),%eax
   451b6:	0f b6 40 02          	movzbl 0x2(%eax),%eax
   451ba:	0f b6 c8             	movzbl %al,%ecx
   451bd:	8b 45 e4             	mov    -0x1c(%ebp),%eax
   451c0:	0f b6 40 01          	movzbl 0x1(%eax),%eax
   451c4:	0f b6 d0             	movzbl %al,%edx
   451c7:	8b 45 e4             	mov    -0x1c(%ebp),%eax
   451ca:	0f b6 00             	movzbl (%eax),%eax
   451cd:	0f b6 c0             	movzbl %al,%eax
   451d0:	c7 44 24 0c 20 00 00 	movl   $0x20,0xc(%esp)
   451d7:	00 
   451d8:	89 4c 24 08          	mov    %ecx,0x8(%esp)
   451dc:	89 54 24 04          	mov    %edx,0x4(%esp)
   451e0:	89 04 24             	mov    %eax,(%esp)
   451e3:	e8 b7 03 00 00       	call   4559f <readconfword>
   451e8:	0f b7 c0             	movzwl %ax,%eax
   451eb:	09 d8                	or     %ebx,%eax
   451ed:	89 45 d4             	mov    %eax,-0x2c(%ebp)
   451f0:	8b 45 e4             	mov    -0x1c(%ebp),%eax
   451f3:	0f b6 40 02          	movzbl 0x2(%eax),%eax
   451f7:	0f b6 c8             	movzbl %al,%ecx
   451fa:	8b 45 e4             	mov    -0x1c(%ebp),%eax
   451fd:	0f b6 40 01          	movzbl 0x1(%eax),%eax
   45201:	0f b6 d0             	movzbl %al,%edx
   45204:	8b 45 e4             	mov    -0x1c(%ebp),%eax
   45207:	0f b6 00             	movzbl (%eax),%eax
   4520a:	0f b6 c0             	movzbl %al,%eax
   4520d:	c7 44 24 0c 1e 00 00 	movl   $0x1e,0xc(%esp)
   45214:	00 
   45215:	89 4c 24 08          	mov    %ecx,0x8(%esp)
   45219:	89 54 24 04          	mov    %edx,0x4(%esp)
   4521d:	89 04 24             	mov    %eax,(%esp)
   45220:	e8 7a 03 00 00       	call   4559f <readconfword>
   45225:	0f b7 c0             	movzwl %ax,%eax
   45228:	89 c3                	mov    %eax,%ebx
   4522a:	c1 e3 10             	shl    $0x10,%ebx
   4522d:	8b 45 e4             	mov    -0x1c(%ebp),%eax
   45230:	0f b6 40 02          	movzbl 0x2(%eax),%eax
   45234:	0f b6 c8             	movzbl %al,%ecx
   45237:	8b 45 e4             	mov    -0x1c(%ebp),%eax
   4523a:	0f b6 40 01          	movzbl 0x1(%eax),%eax
   4523e:	0f b6 d0             	movzbl %al,%edx
   45241:	8b 45 e4             	mov    -0x1c(%ebp),%eax
   45244:	0f b6 00             	movzbl (%eax),%eax
   45247:	0f b6 c0             	movzbl %al,%eax
   4524a:	c7 44 24 0c 1c 00 00 	movl   $0x1c,0xc(%esp)
   45251:	00 
   45252:	89 4c 24 08          	mov    %ecx,0x8(%esp)
   45256:	89 54 24 04          	mov    %edx,0x4(%esp)
   4525a:	89 04 24             	mov    %eax,(%esp)
   4525d:	e8 3d 03 00 00       	call   4559f <readconfword>
   45262:	0f b7 c0             	movzwl %ax,%eax
   45265:	09 d8                	or     %ebx,%eax
   45267:	89 c7                	mov    %eax,%edi
   45269:	8b 45 e4             	mov    -0x1c(%ebp),%eax
   4526c:	0f b6 40 02          	movzbl 0x2(%eax),%eax
   45270:	0f b6 c8             	movzbl %al,%ecx
   45273:	8b 45 e4             	mov    -0x1c(%ebp),%eax
   45276:	0f b6 40 01          	movzbl 0x1(%eax),%eax
   4527a:	0f b6 d0             	movzbl %al,%edx
   4527d:	8b 45 e4             	mov    -0x1c(%ebp),%eax
   45280:	0f b6 00             	movzbl (%eax),%eax
   45283:	0f b6 c0             	movzbl %al,%eax
   45286:	c7 44 24 0c 1a 00 00 	movl   $0x1a,0xc(%esp)
   4528d:	00 
   4528e:	89 4c 24 08          	mov    %ecx,0x8(%esp)
   45292:	89 54 24 04          	mov    %edx,0x4(%esp)
   45296:	89 04 24             	mov    %eax,(%esp)
   45299:	e8 01 03 00 00       	call   4559f <readconfword>
   4529e:	0f b7 c0             	movzwl %ax,%eax
   452a1:	89 c3                	mov    %eax,%ebx
   452a3:	c1 e3 10             	shl    $0x10,%ebx
   452a6:	8b 45 e4             	mov    -0x1c(%ebp),%eax
   452a9:	0f b6 40 02          	movzbl 0x2(%eax),%eax
   452ad:	0f b6 c8             	movzbl %al,%ecx
   452b0:	8b 45 e4             	mov    -0x1c(%ebp),%eax
   452b3:	0f b6 40 01          	movzbl 0x1(%eax),%eax
   452b7:	0f b6 d0             	movzbl %al,%edx
   452ba:	8b 45 e4             	mov    -0x1c(%ebp),%eax
   452bd:	0f b6 00             	movzbl (%eax),%eax
   452c0:	0f b6 c0             	movzbl %al,%eax
   452c3:	c7 44 24 0c 18 00 00 	movl   $0x18,0xc(%esp)
   452ca:	00 
   452cb:	89 4c 24 08          	mov    %ecx,0x8(%esp)
   452cf:	89 54 24 04          	mov    %edx,0x4(%esp)
   452d3:	89 04 24             	mov    %eax,(%esp)
   452d6:	e8 c4 02 00 00       	call   4559f <readconfword>
   452db:	0f b7 c0             	movzwl %ax,%eax
   452de:	09 d8                	or     %ebx,%eax
   452e0:	89 c6                	mov    %eax,%esi
   452e2:	8b 45 e4             	mov    -0x1c(%ebp),%eax
   452e5:	0f b6 40 02          	movzbl 0x2(%eax),%eax
   452e9:	0f b6 c8             	movzbl %al,%ecx
   452ec:	8b 45 e4             	mov    -0x1c(%ebp),%eax
   452ef:	0f b6 40 01          	movzbl 0x1(%eax),%eax
   452f3:	0f b6 d0             	movzbl %al,%edx
   452f6:	8b 45 e4             	mov    -0x1c(%ebp),%eax
   452f9:	0f b6 00             	movzbl (%eax),%eax
   452fc:	0f b6 c0             	movzbl %al,%eax
   452ff:	c7 44 24 0c 16 00 00 	movl   $0x16,0xc(%esp)
   45306:	00 
   45307:	89 4c 24 08          	mov    %ecx,0x8(%esp)
   4530b:	89 54 24 04          	mov    %edx,0x4(%esp)
   4530f:	89 04 24             	mov    %eax,(%esp)
   45312:	e8 88 02 00 00       	call   4559f <readconfword>
   45317:	0f b7 c0             	movzwl %ax,%eax
   4531a:	89 c3                	mov    %eax,%ebx
   4531c:	c1 e3 10             	shl    $0x10,%ebx
   4531f:	8b 45 e4             	mov    -0x1c(%ebp),%eax
   45322:	0f b6 40 02          	movzbl 0x2(%eax),%eax
   45326:	0f b6 c8             	movzbl %al,%ecx
   45329:	8b 45 e4             	mov    -0x1c(%ebp),%eax
   4532c:	0f b6 40 01          	movzbl 0x1(%eax),%eax
   45330:	0f b6 d0             	movzbl %al,%edx
   45333:	8b 45 e4             	mov    -0x1c(%ebp),%eax
   45336:	0f b6 00             	movzbl (%eax),%eax
   45339:	0f b6 c0             	movzbl %al,%eax
   4533c:	c7 44 24 0c 14 00 00 	movl   $0x14,0xc(%esp)
   45343:	00 
   45344:	89 4c 24 08          	mov    %ecx,0x8(%esp)
   45348:	89 54 24 04          	mov    %edx,0x4(%esp)
   4534c:	89 04 24             	mov    %eax,(%esp)
   4534f:	e8 4b 02 00 00       	call   4559f <readconfword>
   45354:	0f b7 c0             	movzwl %ax,%eax
   45357:	09 d8                	or     %ebx,%eax
   45359:	89 c3                	mov    %eax,%ebx
   4535b:	8b 45 e4             	mov    -0x1c(%ebp),%eax
   4535e:	0f b6 40 02          	movzbl 0x2(%eax),%eax
   45362:	0f b6 c8             	movzbl %al,%ecx
   45365:	8b 45 e4             	mov    -0x1c(%ebp),%eax
   45368:	0f b6 40 01          	movzbl 0x1(%eax),%eax
   4536c:	0f b6 d0             	movzbl %al,%edx
   4536f:	8b 45 e4             	mov    -0x1c(%ebp),%eax
   45372:	0f b6 00             	movzbl (%eax),%eax
   45375:	0f b6 c0             	movzbl %al,%eax
   45378:	c7 44 24 0c 12 00 00 	movl   $0x12,0xc(%esp)
   4537f:	00 
   45380:	89 4c 24 08          	mov    %ecx,0x8(%esp)
   45384:	89 54 24 04          	mov    %edx,0x4(%esp)
   45388:	89 04 24             	mov    %eax,(%esp)
   4538b:	e8 0f 02 00 00       	call   4559f <readconfword>
   45390:	0f b7 c0             	movzwl %ax,%eax
   45393:	c1 e0 10             	shl    $0x10,%eax
   45396:	89 45 d0             	mov    %eax,-0x30(%ebp)
   45399:	8b 45 e4             	mov    -0x1c(%ebp),%eax
   4539c:	0f b6 40 02          	movzbl 0x2(%eax),%eax
   453a0:	0f b6 c8             	movzbl %al,%ecx
   453a3:	8b 45 e4             	mov    -0x1c(%ebp),%eax
   453a6:	0f b6 40 01          	movzbl 0x1(%eax),%eax
   453aa:	0f b6 d0             	movzbl %al,%edx
   453ad:	8b 45 e4             	mov    -0x1c(%ebp),%eax
   453b0:	0f b6 00             	movzbl (%eax),%eax
   453b3:	0f b6 c0             	movzbl %al,%eax
   453b6:	c7 44 24 0c 10 00 00 	movl   $0x10,0xc(%esp)
   453bd:	00 
   453be:	89 4c 24 08          	mov    %ecx,0x8(%esp)
   453c2:	89 54 24 04          	mov    %edx,0x4(%esp)
   453c6:	89 04 24             	mov    %eax,(%esp)
   453c9:	e8 d1 01 00 00       	call   4559f <readconfword>
   453ce:	0f b7 c0             	movzwl %ax,%eax
   453d1:	0b 45 d0             	or     -0x30(%ebp),%eax
   453d4:	8b 55 d4             	mov    -0x2c(%ebp),%edx
   453d7:	89 54 24 10          	mov    %edx,0x10(%esp)
   453db:	89 7c 24 0c          	mov    %edi,0xc(%esp)
   453df:	89 74 24 08          	mov    %esi,0x8(%esp)
   453e3:	89 5c 24 04          	mov    %ebx,0x4(%esp)
   453e7:	89 04 24             	mov    %eax,(%esp)
   453ea:	e8 40 f4 ff ff       	call   4482f <ctrl_init>
   453ef:	8b 45 e4             	mov    -0x1c(%ebp),%eax
   453f2:	8b 40 0c             	mov    0xc(%eax),%eax
   453f5:	89 45 e4             	mov    %eax,-0x1c(%ebp)
   453f8:	83 7d e4 00          	cmpl   $0x0,-0x1c(%ebp)
   453fc:	0f 85 d9 fc ff ff    	jne    450db <init_ide+0x3d>
   45402:	c7 04 24 4c 80 04 00 	movl   $0x4804c,(%esp)
   45409:	e8 d2 d8 ff ff       	call   42ce0 <putstring>
   4540e:	90                   	nop
   4540f:	83 c4 4c             	add    $0x4c,%esp
   45412:	5b                   	pop    %ebx
   45413:	5e                   	pop    %esi
   45414:	5f                   	pop    %edi
   45415:	5d                   	pop    %ebp
   45416:	c3                   	ret    

00045417 <keyboard_handler>:
   45417:	55                   	push   %ebp
   45418:	89 e5                	mov    %esp,%ebp
   4541a:	56                   	push   %esi
   4541b:	53                   	push   %ebx
   4541c:	83 ec 20             	sub    $0x20,%esp
   4541f:	a1 2c cf 04 00       	mov    0x4cf2c,%eax
   45424:	83 f8 01             	cmp    $0x1,%eax
   45427:	0f 85 57 01 00 00    	jne    45584 <keyboard_handler+0x16d>
   4542d:	c7 05 2c cf 04 00 00 	movl   $0x0,0x4cf2c
   45434:	00 00 00 
   45437:	83 7d 08 48          	cmpl   $0x48,0x8(%ebp)
   4543b:	0f 85 43 01 00 00    	jne    45584 <keyboard_handler+0x16d>
   45441:	a1 b4 b0 04 00       	mov    0x4b0b4,%eax
   45446:	85 c0                	test   %eax,%eax
   45448:	0f 94 c0             	sete   %al
   4544b:	0f b6 c0             	movzbl %al,%eax
   4544e:	a3 b4 b0 04 00       	mov    %eax,0x4b0b4
   45453:	a1 b4 b0 04 00       	mov    0x4b0b4,%eax
   45458:	83 f8 01             	cmp    $0x1,%eax
   4545b:	75 49                	jne    454a6 <keyboard_handler+0x8f>
   4545d:	8b 15 a8 b0 04 00    	mov    0x4b0a8,%edx
   45463:	a1 ac b0 04 00       	mov    0x4b0ac,%eax
   45468:	0f af d0             	imul   %eax,%edx
   4546b:	0f b6 05 ac c6 04 00 	movzbl 0x4c6ac,%eax
   45472:	c0 e8 03             	shr    $0x3,%al
   45475:	0f b6 c0             	movzbl %al,%eax
   45478:	89 d1                	mov    %edx,%ecx
   4547a:	0f af c8             	imul   %eax,%ecx
   4547d:	a1 98 c6 04 00       	mov    0x4c698,%eax
   45482:	8b 15 9c c6 04 00    	mov    0x4c69c,%edx
   45488:	89 4c 24 08          	mov    %ecx,0x8(%esp)
   4548c:	c7 44 24 04 00 00 00 	movl   $0x0,0x4(%esp)
   45493:	00 
   45494:	89 04 24             	mov    %eax,(%esp)
   45497:	e8 d3 cf ff ff       	call   4246f <memset>
   4549c:	e8 26 d5 ff ff       	call   429c7 <buf_flush>
   454a1:	e9 de 00 00 00       	jmp    45584 <keyboard_handler+0x16d>
   454a6:	8b 15 a8 b0 04 00    	mov    0x4b0a8,%edx
   454ac:	a1 ac b0 04 00       	mov    0x4b0ac,%eax
   454b1:	0f af d0             	imul   %eax,%edx
   454b4:	0f b6 05 ac c6 04 00 	movzbl 0x4c6ac,%eax
   454bb:	c0 e8 03             	shr    $0x3,%al
   454be:	0f b6 c0             	movzbl %al,%eax
   454c1:	89 d1                	mov    %edx,%ecx
   454c3:	0f af c8             	imul   %eax,%ecx
   454c6:	a1 98 c6 04 00       	mov    0x4c698,%eax
   454cb:	8b 15 9c c6 04 00    	mov    0x4c69c,%edx
   454d1:	89 4c 24 08          	mov    %ecx,0x8(%esp)
   454d5:	c7 44 24 04 00 00 00 	movl   $0x0,0x4(%esp)
   454dc:	00 
   454dd:	89 04 24             	mov    %eax,(%esp)
   454e0:	e8 8a cf ff ff       	call   4246f <memset>
   454e5:	0f b6 05 ad c6 04 00 	movzbl 0x4c6ad,%eax
   454ec:	3c 02                	cmp    $0x2,%al
   454ee:	0f 84 90 00 00 00    	je     45584 <keyboard_handler+0x16d>
   454f4:	c7 45 f4 00 00 00 00 	movl   $0x0,-0xc(%ebp)
   454fb:	eb 7d                	jmp    4557a <keyboard_handler+0x163>
   454fd:	c7 45 f0 00 00 00 00 	movl   $0x0,-0x10(%ebp)
   45504:	eb 6b                	jmp    45571 <keyboard_handler+0x15a>
   45506:	a1 ac b0 04 00       	mov    0x4b0ac,%eax
   4550b:	d1 e8                	shr    %eax
   4550d:	89 c2                	mov    %eax,%edx
   4550f:	8b 45 f0             	mov    -0x10(%ebp),%eax
   45512:	01 d0                	add    %edx,%eax
   45514:	8d 48 c0             	lea    -0x40(%eax),%ecx
   45517:	a1 a8 b0 04 00       	mov    0x4b0a8,%eax
   4551c:	d1 e8                	shr    %eax
   4551e:	89 c2                	mov    %eax,%edx
   45520:	8b 45 f4             	mov    -0xc(%ebp),%eax
   45523:	01 d0                	add    %edx,%eax
   45525:	8d 50 c2             	lea    -0x3e(%eax),%edx
   45528:	8b 45 f4             	mov    -0xc(%ebp),%eax
   4552b:	8d 58 03             	lea    0x3(%eax),%ebx
   4552e:	85 c0                	test   %eax,%eax
   45530:	0f 48 c3             	cmovs  %ebx,%eax
   45533:	c1 f8 02             	sar    $0x2,%eax
   45536:	89 c6                	mov    %eax,%esi
   45538:	8b 45 f0             	mov    -0x10(%ebp),%eax
   4553b:	8d 58 03             	lea    0x3(%eax),%ebx
   4553e:	85 c0                	test   %eax,%eax
   45540:	0f 48 c3             	cmovs  %ebx,%eax
   45543:	c1 f8 02             	sar    $0x2,%eax
   45546:	89 c3                	mov    %eax,%ebx
   45548:	89 d8                	mov    %ebx,%eax
   4554a:	c1 e0 05             	shl    $0x5,%eax
   4554d:	29 d8                	sub    %ebx,%eax
   4554f:	01 f0                	add    %esi,%eax
   45551:	c1 e0 02             	shl    $0x2,%eax
   45554:	83 c0 12             	add    $0x12,%eax
   45557:	05 a0 a0 04 00       	add    $0x4a0a0,%eax
   4555c:	8b 00                	mov    (%eax),%eax
   4555e:	89 4c 24 08          	mov    %ecx,0x8(%esp)
   45562:	89 54 24 04          	mov    %edx,0x4(%esp)
   45566:	89 04 24             	mov    %eax,(%esp)
   45569:	e8 cd d2 ff ff       	call   4283b <putpixel>
   4556e:	ff 45 f0             	incl   -0x10(%ebp)
   45571:	83 7d f0 7f          	cmpl   $0x7f,-0x10(%ebp)
   45575:	7e 8f                	jle    45506 <keyboard_handler+0xef>
   45577:	ff 45 f4             	incl   -0xc(%ebp)
   4557a:	83 7d f4 7b          	cmpl   $0x7b,-0xc(%ebp)
   4557e:	0f 8e 79 ff ff ff    	jle    454fd <keyboard_handler+0xe6>
   45584:	81 7d 08 e0 00 00 00 	cmpl   $0xe0,0x8(%ebp)
   4558b:	75 0a                	jne    45597 <keyboard_handler+0x180>
   4558d:	c7 05 2c cf 04 00 01 	movl   $0x1,0x4cf2c
   45594:	00 00 00 
   45597:	90                   	nop
   45598:	83 c4 20             	add    $0x20,%esp
   4559b:	5b                   	pop    %ebx
   4559c:	5e                   	pop    %esi
   4559d:	5d                   	pop    %ebp
   4559e:	c3                   	ret    

0004559f <readconfword>:
   4559f:	55                   	push   %ebp
   455a0:	89 e5                	mov    %esp,%ebp
   455a2:	83 ec 48             	sub    $0x48,%esp
   455a5:	89 5d fc             	mov    %ebx,-0x4(%ebp)
   455a8:	8b 45 08             	mov    0x8(%ebp),%eax
   455ab:	8b 5d 0c             	mov    0xc(%ebp),%ebx
   455ae:	8b 4d 10             	mov    0x10(%ebp),%ecx
   455b1:	8b 55 14             	mov    0x14(%ebp),%edx
   455b4:	88 45 d4             	mov    %al,-0x2c(%ebp)
   455b7:	88 d8                	mov    %bl,%al
   455b9:	88 45 d0             	mov    %al,-0x30(%ebp)
   455bc:	88 c8                	mov    %cl,%al
   455be:	88 45 cc             	mov    %al,-0x34(%ebp)
   455c1:	88 d0                	mov    %dl,%al
   455c3:	88 45 c8             	mov    %al,-0x38(%ebp)
   455c6:	0f b6 45 d4          	movzbl -0x2c(%ebp),%eax
   455ca:	89 45 f4             	mov    %eax,-0xc(%ebp)
   455cd:	0f b6 45 d0          	movzbl -0x30(%ebp),%eax
   455d1:	89 45 f0             	mov    %eax,-0x10(%ebp)
   455d4:	0f b6 45 cc          	movzbl -0x34(%ebp),%eax
   455d8:	89 45 ec             	mov    %eax,-0x14(%ebp)
   455db:	66 c7 45 ea 00 00    	movw   $0x0,-0x16(%ebp)
   455e1:	8b 45 f4             	mov    -0xc(%ebp),%eax
   455e4:	c1 e0 10             	shl    $0x10,%eax
   455e7:	89 c2                	mov    %eax,%edx
   455e9:	8b 45 f0             	mov    -0x10(%ebp),%eax
   455ec:	c1 e0 0b             	shl    $0xb,%eax
   455ef:	09 c2                	or     %eax,%edx
   455f1:	8b 45 ec             	mov    -0x14(%ebp),%eax
   455f4:	c1 e0 08             	shl    $0x8,%eax
   455f7:	09 c2                	or     %eax,%edx
   455f9:	0f b6 45 c8          	movzbl -0x38(%ebp),%eax
   455fd:	25 fc 00 00 00       	and    $0xfc,%eax
   45602:	09 d0                	or     %edx,%eax
   45604:	0d 00 00 00 80       	or     $0x80000000,%eax
   45609:	89 45 e4             	mov    %eax,-0x1c(%ebp)
   4560c:	8b 45 e4             	mov    -0x1c(%ebp),%eax
   4560f:	89 44 24 04          	mov    %eax,0x4(%esp)
   45613:	c7 04 24 f8 0c 00 00 	movl   $0xcf8,(%esp)
   4561a:	e8 2f c0 ff ff       	call   4164e <outl>
   4561f:	c7 04 24 fc 0c 00 00 	movl   $0xcfc,(%esp)
   45626:	e8 3c c0 ff ff       	call   41667 <inl>
   4562b:	0f b6 55 c8          	movzbl -0x38(%ebp),%edx
   4562f:	83 e2 02             	and    $0x2,%edx
   45632:	c1 e2 03             	shl    $0x3,%edx
   45635:	88 d1                	mov    %dl,%cl
   45637:	d3 e8                	shr    %cl,%eax
   45639:	66 89 45 ea          	mov    %ax,-0x16(%ebp)
   4563d:	0f b7 45 ea          	movzwl -0x16(%ebp),%eax
   45641:	8b 5d fc             	mov    -0x4(%ebp),%ebx
   45644:	89 ec                	mov    %ebp,%esp
   45646:	5d                   	pop    %ebp
   45647:	c3                   	ret    

00045648 <readconfword32>:
   45648:	55                   	push   %ebp
   45649:	89 e5                	mov    %esp,%ebp
   4564b:	83 ec 38             	sub    $0x38,%esp
   4564e:	89 5d fc             	mov    %ebx,-0x4(%ebp)
   45651:	8b 45 08             	mov    0x8(%ebp),%eax
   45654:	8b 5d 0c             	mov    0xc(%ebp),%ebx
   45657:	8b 4d 10             	mov    0x10(%ebp),%ecx
   4565a:	8b 55 14             	mov    0x14(%ebp),%edx
   4565d:	88 45 e4             	mov    %al,-0x1c(%ebp)
   45660:	88 d8                	mov    %bl,%al
   45662:	88 45 e0             	mov    %al,-0x20(%ebp)
   45665:	88 c8                	mov    %cl,%al
   45667:	88 45 dc             	mov    %al,-0x24(%ebp)
   4566a:	88 d0                	mov    %dl,%al
   4566c:	88 45 d8             	mov    %al,-0x28(%ebp)
   4566f:	0f b6 45 e4          	movzbl -0x1c(%ebp),%eax
   45673:	89 45 f4             	mov    %eax,-0xc(%ebp)
   45676:	0f b6 45 e0          	movzbl -0x20(%ebp),%eax
   4567a:	89 45 f0             	mov    %eax,-0x10(%ebp)
   4567d:	0f b6 45 dc          	movzbl -0x24(%ebp),%eax
   45681:	89 45 ec             	mov    %eax,-0x14(%ebp)
   45684:	8b 45 f4             	mov    -0xc(%ebp),%eax
   45687:	c1 e0 10             	shl    $0x10,%eax
   4568a:	89 c2                	mov    %eax,%edx
   4568c:	8b 45 f0             	mov    -0x10(%ebp),%eax
   4568f:	c1 e0 0b             	shl    $0xb,%eax
   45692:	09 c2                	or     %eax,%edx
   45694:	8b 45 ec             	mov    -0x14(%ebp),%eax
   45697:	c1 e0 08             	shl    $0x8,%eax
   4569a:	09 c2                	or     %eax,%edx
   4569c:	0f b6 45 d8          	movzbl -0x28(%ebp),%eax
   456a0:	25 fc 00 00 00       	and    $0xfc,%eax
   456a5:	09 d0                	or     %edx,%eax
   456a7:	0d 00 00 00 80       	or     $0x80000000,%eax
   456ac:	89 45 e8             	mov    %eax,-0x18(%ebp)
   456af:	8b 45 e8             	mov    -0x18(%ebp),%eax
   456b2:	89 44 24 04          	mov    %eax,0x4(%esp)
   456b6:	c7 04 24 f8 0c 00 00 	movl   $0xcf8,(%esp)
   456bd:	e8 8c bf ff ff       	call   4164e <outl>
   456c2:	c7 04 24 fc 0c 00 00 	movl   $0xcfc,(%esp)
   456c9:	e8 99 bf ff ff       	call   41667 <inl>
   456ce:	8b 5d fc             	mov    -0x4(%ebp),%ebx
   456d1:	89 ec                	mov    %ebp,%esp
   456d3:	5d                   	pop    %ebp
   456d4:	c3                   	ret    

000456d5 <chkfunc>:
   456d5:	55                   	push   %ebp
   456d6:	89 e5                	mov    %esp,%ebp
   456d8:	83 ec 38             	sub    $0x38,%esp
   456db:	89 5d fc             	mov    %ebx,-0x4(%ebp)
   456de:	8b 45 08             	mov    0x8(%ebp),%eax
   456e1:	8b 4d 0c             	mov    0xc(%ebp),%ecx
   456e4:	8b 55 10             	mov    0x10(%ebp),%edx
   456e7:	88 45 e4             	mov    %al,-0x1c(%ebp)
   456ea:	88 c8                	mov    %cl,%al
   456ec:	88 45 e0             	mov    %al,-0x20(%ebp)
   456ef:	88 d0                	mov    %dl,%al
   456f1:	88 45 dc             	mov    %al,-0x24(%ebp)
   456f4:	0f b6 4d dc          	movzbl -0x24(%ebp),%ecx
   456f8:	0f b6 55 e0          	movzbl -0x20(%ebp),%edx
   456fc:	0f b6 45 e4          	movzbl -0x1c(%ebp),%eax
   45700:	c7 44 24 0c 0a 00 00 	movl   $0xa,0xc(%esp)
   45707:	00 
   45708:	89 4c 24 08          	mov    %ecx,0x8(%esp)
   4570c:	89 54 24 04          	mov    %edx,0x4(%esp)
   45710:	89 04 24             	mov    %eax,(%esp)
   45713:	e8 87 fe ff ff       	call   4559f <readconfword>
   45718:	0f b7 c0             	movzwl %ax,%eax
   4571b:	c1 e8 08             	shr    $0x8,%eax
   4571e:	0f b7 c0             	movzwl %ax,%eax
   45721:	88 45 f7             	mov    %al,-0x9(%ebp)
   45724:	0f b6 4d dc          	movzbl -0x24(%ebp),%ecx
   45728:	0f b6 55 e0          	movzbl -0x20(%ebp),%edx
   4572c:	0f b6 45 e4          	movzbl -0x1c(%ebp),%eax
   45730:	c7 44 24 0c 0a 00 00 	movl   $0xa,0xc(%esp)
   45737:	00 
   45738:	89 4c 24 08          	mov    %ecx,0x8(%esp)
   4573c:	89 54 24 04          	mov    %edx,0x4(%esp)
   45740:	89 04 24             	mov    %eax,(%esp)
   45743:	e8 57 fe ff ff       	call   4559f <readconfword>
   45748:	0f b7 c0             	movzwl %ax,%eax
   4574b:	88 45 f6             	mov    %al,-0xa(%ebp)
   4574e:	a1 34 cf 04 00       	mov    0x4cf34,%eax
   45753:	0f b6 55 e4          	movzbl -0x1c(%ebp),%edx
   45757:	88 10                	mov    %dl,(%eax)
   45759:	a1 34 cf 04 00       	mov    0x4cf34,%eax
   4575e:	0f b6 55 e0          	movzbl -0x20(%ebp),%edx
   45762:	88 50 01             	mov    %dl,0x1(%eax)
   45765:	a1 34 cf 04 00       	mov    0x4cf34,%eax
   4576a:	0f b6 55 dc          	movzbl -0x24(%ebp),%edx
   4576e:	88 50 02             	mov    %dl,0x2(%eax)
   45771:	a1 34 cf 04 00       	mov    0x4cf34,%eax
   45776:	0f b6 55 f7          	movzbl -0x9(%ebp),%edx
   4577a:	88 50 03             	mov    %dl,0x3(%eax)
   4577d:	a1 34 cf 04 00       	mov    0x4cf34,%eax
   45782:	0f b6 55 f6          	movzbl -0xa(%ebp),%edx
   45786:	88 50 04             	mov    %dl,0x4(%eax)
   45789:	0f b6 4d dc          	movzbl -0x24(%ebp),%ecx
   4578d:	0f b6 55 e0          	movzbl -0x20(%ebp),%edx
   45791:	0f b6 45 e4          	movzbl -0x1c(%ebp),%eax
   45795:	c7 44 24 0c 00 00 00 	movl   $0x0,0xc(%esp)
   4579c:	00 
   4579d:	89 4c 24 08          	mov    %ecx,0x8(%esp)
   457a1:	89 54 24 04          	mov    %edx,0x4(%esp)
   457a5:	89 04 24             	mov    %eax,(%esp)
   457a8:	e8 f2 fd ff ff       	call   4559f <readconfword>
   457ad:	66 89 45 f4          	mov    %ax,-0xc(%ebp)
   457b1:	a1 34 cf 04 00       	mov    0x4cf34,%eax
   457b6:	8b 55 f4             	mov    -0xc(%ebp),%edx
   457b9:	66 89 50 06          	mov    %dx,0x6(%eax)
   457bd:	0f b6 4d dc          	movzbl -0x24(%ebp),%ecx
   457c1:	0f b6 55 e0          	movzbl -0x20(%ebp),%edx
   457c5:	0f b6 45 e4          	movzbl -0x1c(%ebp),%eax
   457c9:	8b 1d 34 cf 04 00    	mov    0x4cf34,%ebx
   457cf:	c7 44 24 0c 02 00 00 	movl   $0x2,0xc(%esp)
   457d6:	00 
   457d7:	89 4c 24 08          	mov    %ecx,0x8(%esp)
   457db:	89 54 24 04          	mov    %edx,0x4(%esp)
   457df:	89 04 24             	mov    %eax,(%esp)
   457e2:	e8 b8 fd ff ff       	call   4559f <readconfword>
   457e7:	0f b7 c0             	movzwl %ax,%eax
   457ea:	66 89 43 08          	mov    %ax,0x8(%ebx)
   457ee:	0f b6 4d dc          	movzbl -0x24(%ebp),%ecx
   457f2:	0f b6 55 e0          	movzbl -0x20(%ebp),%edx
   457f6:	0f b6 45 e4          	movzbl -0x1c(%ebp),%eax
   457fa:	c7 44 24 0c 3c 00 00 	movl   $0x3c,0xc(%esp)
   45801:	00 
   45802:	89 4c 24 08          	mov    %ecx,0x8(%esp)
   45806:	89 54 24 04          	mov    %edx,0x4(%esp)
   4580a:	89 04 24             	mov    %eax,(%esp)
   4580d:	e8 8d fd ff ff       	call   4559f <readconfword>
   45812:	0f b7 d0             	movzwl %ax,%edx
   45815:	a1 34 cf 04 00       	mov    0x4cf34,%eax
   4581a:	88 50 05             	mov    %dl,0x5(%eax)
   4581d:	8b 1d 34 cf 04 00    	mov    0x4cf34,%ebx
   45823:	c7 04 24 14 00 00 00 	movl   $0x14,(%esp)
   4582a:	e8 c2 b7 ff ff       	call   40ff1 <khmalloc>
   4582f:	89 43 0c             	mov    %eax,0xc(%ebx)
   45832:	a1 34 cf 04 00       	mov    0x4cf34,%eax
   45837:	8b 40 0c             	mov    0xc(%eax),%eax
   4583a:	8b 15 34 cf 04 00    	mov    0x4cf34,%edx
   45840:	89 50 10             	mov    %edx,0x10(%eax)
   45843:	a1 34 cf 04 00       	mov    0x4cf34,%eax
   45848:	8b 40 0c             	mov    0xc(%eax),%eax
   4584b:	a3 34 cf 04 00       	mov    %eax,0x4cf34
   45850:	80 7d f7 06          	cmpb   $0x6,-0x9(%ebp)
   45854:	75 42                	jne    45898 <chkfunc+0x1c3>
   45856:	80 7d f6 04          	cmpb   $0x4,-0xa(%ebp)
   4585a:	75 3c                	jne    45898 <chkfunc+0x1c3>
   4585c:	0f b6 4d dc          	movzbl -0x24(%ebp),%ecx
   45860:	0f b6 55 e0          	movzbl -0x20(%ebp),%edx
   45864:	0f b6 45 e4          	movzbl -0x1c(%ebp),%eax
   45868:	c7 44 24 0c 18 00 00 	movl   $0x18,0xc(%esp)
   4586f:	00 
   45870:	89 4c 24 08          	mov    %ecx,0x8(%esp)
   45874:	89 54 24 04          	mov    %edx,0x4(%esp)
   45878:	89 04 24             	mov    %eax,(%esp)
   4587b:	e8 1f fd ff ff       	call   4559f <readconfword>
   45880:	0f b7 c0             	movzwl %ax,%eax
   45883:	c1 e8 08             	shr    $0x8,%eax
   45886:	0f b7 c0             	movzwl %ax,%eax
   45889:	88 45 f3             	mov    %al,-0xd(%ebp)
   4588c:	0f b6 45 f3          	movzbl -0xd(%ebp),%eax
   45890:	89 04 24             	mov    %eax,(%esp)
   45893:	e8 0e 01 00 00       	call   459a6 <chkbus>
   45898:	90                   	nop
   45899:	8b 5d fc             	mov    -0x4(%ebp),%ebx
   4589c:	89 ec                	mov    %ebp,%esp
   4589e:	5d                   	pop    %ebp
   4589f:	c3                   	ret    

000458a0 <chkdev>:
   458a0:	55                   	push   %ebp
   458a1:	89 e5                	mov    %esp,%ebp
   458a3:	83 ec 38             	sub    $0x38,%esp
   458a6:	8b 45 08             	mov    0x8(%ebp),%eax
   458a9:	8b 55 0c             	mov    0xc(%ebp),%edx
   458ac:	88 45 e4             	mov    %al,-0x1c(%ebp)
   458af:	88 d0                	mov    %dl,%al
   458b1:	88 45 e0             	mov    %al,-0x20(%ebp)
   458b4:	c6 45 f7 00          	movb   $0x0,-0x9(%ebp)
   458b8:	0f b6 4d f7          	movzbl -0x9(%ebp),%ecx
   458bc:	0f b6 55 e0          	movzbl -0x20(%ebp),%edx
   458c0:	0f b6 45 e4          	movzbl -0x1c(%ebp),%eax
   458c4:	c7 44 24 0c 00 00 00 	movl   $0x0,0xc(%esp)
   458cb:	00 
   458cc:	89 4c 24 08          	mov    %ecx,0x8(%esp)
   458d0:	89 54 24 04          	mov    %edx,0x4(%esp)
   458d4:	89 04 24             	mov    %eax,(%esp)
   458d7:	e8 c3 fc ff ff       	call   4559f <readconfword>
   458dc:	66 89 45 f4          	mov    %ax,-0xc(%ebp)
   458e0:	0f b7 45 f4          	movzwl -0xc(%ebp),%eax
   458e4:	3d ff ff 00 00       	cmp    $0xffff,%eax
   458e9:	0f 84 b2 00 00 00    	je     459a1 <chkdev+0x101>
   458ef:	0f b6 4d f7          	movzbl -0x9(%ebp),%ecx
   458f3:	0f b6 55 e0          	movzbl -0x20(%ebp),%edx
   458f7:	0f b6 45 e4          	movzbl -0x1c(%ebp),%eax
   458fb:	89 4c 24 08          	mov    %ecx,0x8(%esp)
   458ff:	89 54 24 04          	mov    %edx,0x4(%esp)
   45903:	89 04 24             	mov    %eax,(%esp)
   45906:	e8 ca fd ff ff       	call   456d5 <chkfunc>
   4590b:	0f b6 4d f7          	movzbl -0x9(%ebp),%ecx
   4590f:	0f b6 55 e0          	movzbl -0x20(%ebp),%edx
   45913:	0f b6 45 e4          	movzbl -0x1c(%ebp),%eax
   45917:	c7 44 24 0c 0e 00 00 	movl   $0xe,0xc(%esp)
   4591e:	00 
   4591f:	89 4c 24 08          	mov    %ecx,0x8(%esp)
   45923:	89 54 24 04          	mov    %edx,0x4(%esp)
   45927:	89 04 24             	mov    %eax,(%esp)
   4592a:	e8 70 fc ff ff       	call   4559f <readconfword>
   4592f:	66 89 45 f2          	mov    %ax,-0xe(%ebp)
   45933:	0f b7 45 f2          	movzwl -0xe(%ebp),%eax
   45937:	25 80 00 00 00       	and    $0x80,%eax
   4593c:	85 c0                	test   %eax,%eax
   4593e:	74 62                	je     459a2 <chkdev+0x102>
   45940:	c6 45 f7 01          	movb   $0x1,-0x9(%ebp)
   45944:	eb 53                	jmp    45999 <chkdev+0xf9>
   45946:	0f b6 4d f7          	movzbl -0x9(%ebp),%ecx
   4594a:	0f b6 55 e0          	movzbl -0x20(%ebp),%edx
   4594e:	0f b6 45 e4          	movzbl -0x1c(%ebp),%eax
   45952:	c7 44 24 0c 00 00 00 	movl   $0x0,0xc(%esp)
   45959:	00 
   4595a:	89 4c 24 08          	mov    %ecx,0x8(%esp)
   4595e:	89 54 24 04          	mov    %edx,0x4(%esp)
   45962:	89 04 24             	mov    %eax,(%esp)
   45965:	e8 35 fc ff ff       	call   4559f <readconfword>
   4596a:	0f b7 c0             	movzwl %ax,%eax
   4596d:	3d ff ff 00 00       	cmp    $0xffff,%eax
   45972:	74 1c                	je     45990 <chkdev+0xf0>
   45974:	0f b6 4d f7          	movzbl -0x9(%ebp),%ecx
   45978:	0f b6 55 e0          	movzbl -0x20(%ebp),%edx
   4597c:	0f b6 45 e4          	movzbl -0x1c(%ebp),%eax
   45980:	89 4c 24 08          	mov    %ecx,0x8(%esp)
   45984:	89 54 24 04          	mov    %edx,0x4(%esp)
   45988:	89 04 24             	mov    %eax,(%esp)
   4598b:	e8 45 fd ff ff       	call   456d5 <chkfunc>
   45990:	0f b6 45 f7          	movzbl -0x9(%ebp),%eax
   45994:	fe c0                	inc    %al
   45996:	88 45 f7             	mov    %al,-0x9(%ebp)
   45999:	80 7d f7 07          	cmpb   $0x7,-0x9(%ebp)
   4599d:	76 a7                	jbe    45946 <chkdev+0xa6>
   4599f:	eb 01                	jmp    459a2 <chkdev+0x102>
   459a1:	90                   	nop
   459a2:	89 ec                	mov    %ebp,%esp
   459a4:	5d                   	pop    %ebp
   459a5:	c3                   	ret    

000459a6 <chkbus>:
   459a6:	55                   	push   %ebp
   459a7:	89 e5                	mov    %esp,%ebp
   459a9:	83 ec 38             	sub    $0x38,%esp
   459ac:	8b 45 08             	mov    0x8(%ebp),%eax
   459af:	88 45 e4             	mov    %al,-0x1c(%ebp)
   459b2:	c6 45 f7 00          	movb   $0x0,-0x9(%ebp)
   459b6:	eb 17                	jmp    459cf <chkbus+0x29>
   459b8:	0f b6 55 f7          	movzbl -0x9(%ebp),%edx
   459bc:	0f b6 45 e4          	movzbl -0x1c(%ebp),%eax
   459c0:	89 54 24 04          	mov    %edx,0x4(%esp)
   459c4:	89 04 24             	mov    %eax,(%esp)
   459c7:	e8 d4 fe ff ff       	call   458a0 <chkdev>
   459cc:	fe 45 f7             	incb   -0x9(%ebp)
   459cf:	80 7d f7 1f          	cmpb   $0x1f,-0x9(%ebp)
   459d3:	76 e3                	jbe    459b8 <chkbus+0x12>
   459d5:	90                   	nop
   459d6:	90                   	nop
   459d7:	89 ec                	mov    %ebp,%esp
   459d9:	5d                   	pop    %ebp
   459da:	c3                   	ret    

000459db <init_pci>:
   459db:	55                   	push   %ebp
   459dc:	89 e5                	mov    %esp,%ebp
   459de:	83 ec 28             	sub    $0x28,%esp
   459e1:	c7 04 24 58 d1 04 00 	movl   $0x4d158,(%esp)
   459e8:	e8 f3 d2 ff ff       	call   42ce0 <putstring>
   459ed:	c7 04 24 14 00 00 00 	movl   $0x14,(%esp)
   459f4:	e8 f8 b5 ff ff       	call   40ff1 <khmalloc>
   459f9:	a3 34 cf 04 00       	mov    %eax,0x4cf34
   459fe:	a1 34 cf 04 00       	mov    0x4cf34,%eax
   45a03:	a3 30 cf 04 00       	mov    %eax,0x4cf30
   45a08:	c7 44 24 0c 0e 00 00 	movl   $0xe,0xc(%esp)
   45a0f:	00 
   45a10:	c7 44 24 08 00 00 00 	movl   $0x0,0x8(%esp)
   45a17:	00 
   45a18:	c7 44 24 04 00 00 00 	movl   $0x0,0x4(%esp)
   45a1f:	00 
   45a20:	c7 04 24 00 00 00 00 	movl   $0x0,(%esp)
   45a27:	e8 73 fb ff ff       	call   4559f <readconfword>
   45a2c:	0f b7 c0             	movzwl %ax,%eax
   45a2f:	25 ff 00 00 00       	and    $0xff,%eax
   45a34:	89 45 f0             	mov    %eax,-0x10(%ebp)
   45a37:	8b 45 f0             	mov    -0x10(%ebp),%eax
   45a3a:	25 80 00 00 00       	and    $0x80,%eax
   45a3f:	85 c0                	test   %eax,%eax
   45a41:	75 0e                	jne    45a51 <init_pci+0x76>
   45a43:	c7 04 24 00 00 00 00 	movl   $0x0,(%esp)
   45a4a:	e8 57 ff ff ff       	call   459a6 <chkbus>
   45a4f:	eb 54                	jmp    45aa5 <init_pci+0xca>
   45a51:	c7 45 f4 00 00 00 00 	movl   $0x0,-0xc(%ebp)
   45a58:	eb 45                	jmp    45a9f <init_pci+0xc4>
   45a5a:	8b 45 f4             	mov    -0xc(%ebp),%eax
   45a5d:	0f b6 c0             	movzbl %al,%eax
   45a60:	c7 44 24 0c 00 00 00 	movl   $0x0,0xc(%esp)
   45a67:	00 
   45a68:	89 44 24 08          	mov    %eax,0x8(%esp)
   45a6c:	c7 44 24 04 00 00 00 	movl   $0x0,0x4(%esp)
   45a73:	00 
   45a74:	c7 04 24 00 00 00 00 	movl   $0x0,(%esp)
   45a7b:	e8 1f fb ff ff       	call   4559f <readconfword>
   45a80:	0f b7 c0             	movzwl %ax,%eax
   45a83:	3d ff ff 00 00       	cmp    $0xffff,%eax
   45a88:	74 12                	je     45a9c <init_pci+0xc1>
   45a8a:	8b 45 f4             	mov    -0xc(%ebp),%eax
   45a8d:	88 45 ef             	mov    %al,-0x11(%ebp)
   45a90:	0f b6 45 ef          	movzbl -0x11(%ebp),%eax
   45a94:	89 04 24             	mov    %eax,(%esp)
   45a97:	e8 0a ff ff ff       	call   459a6 <chkbus>
   45a9c:	ff 45 f4             	incl   -0xc(%ebp)
   45a9f:	83 7d f4 07          	cmpl   $0x7,-0xc(%ebp)
   45aa3:	76 b5                	jbe    45a5a <init_pci+0x7f>
   45aa5:	a1 34 cf 04 00       	mov    0x4cf34,%eax
   45aaa:	8b 40 10             	mov    0x10(%eax),%eax
   45aad:	a3 34 cf 04 00       	mov    %eax,0x4cf34
   45ab2:	a1 34 cf 04 00       	mov    0x4cf34,%eax
   45ab7:	8b 40 0c             	mov    0xc(%eax),%eax
   45aba:	89 04 24             	mov    %eax,(%esp)
   45abd:	e8 74 b5 ff ff       	call   41036 <khfree>
   45ac2:	a1 34 cf 04 00       	mov    0x4cf34,%eax
   45ac7:	c7 40 0c 00 00 00 00 	movl   $0x0,0xc(%eax)
   45ace:	a1 30 cf 04 00       	mov    0x4cf30,%eax
   45ad3:	a3 34 cf 04 00       	mov    %eax,0x4cf34
   45ad8:	c7 04 24 4c 80 04 00 	movl   $0x4804c,(%esp)
   45adf:	e8 fc d1 ff ff       	call   42ce0 <putstring>
   45ae4:	90                   	nop
   45ae5:	89 ec                	mov    %ebp,%esp
   45ae7:	5d                   	pop    %ebp
   45ae8:	c3                   	ret    

00045ae9 <init_pic>:
   45ae9:	55                   	push   %ebp
   45aea:	89 e5                	mov    %esp,%ebp
   45aec:	83 ec 28             	sub    $0x28,%esp
   45aef:	c7 04 24 c8 b0 04 00 	movl   $0x4b0c8,(%esp)
   45af6:	e8 e5 d1 ff ff       	call   42ce0 <putstring>
   45afb:	c7 04 24 21 00 00 00 	movl   $0x21,(%esp)
   45b02:	e8 29 bb ff ff       	call   41630 <inb>
   45b07:	88 45 f7             	mov    %al,-0x9(%ebp)
   45b0a:	c7 04 24 a1 00 00 00 	movl   $0xa1,(%esp)
   45b11:	e8 1a bb ff ff       	call   41630 <inb>
   45b16:	88 45 f6             	mov    %al,-0xa(%ebp)
   45b19:	c7 44 24 04 11 00 00 	movl   $0x11,0x4(%esp)
   45b20:	00 
   45b21:	c7 04 24 20 00 00 00 	movl   $0x20,(%esp)
   45b28:	e8 e1 ba ff ff       	call   4160e <outb>
   45b2d:	e8 75 bb ff ff       	call   416a7 <io_wait>
   45b32:	c7 44 24 04 11 00 00 	movl   $0x11,0x4(%esp)
   45b39:	00 
   45b3a:	c7 04 24 a0 00 00 00 	movl   $0xa0,(%esp)
   45b41:	e8 c8 ba ff ff       	call   4160e <outb>
   45b46:	e8 5c bb ff ff       	call   416a7 <io_wait>
   45b4b:	c7 44 24 04 20 00 00 	movl   $0x20,0x4(%esp)
   45b52:	00 
   45b53:	c7 04 24 21 00 00 00 	movl   $0x21,(%esp)
   45b5a:	e8 af ba ff ff       	call   4160e <outb>
   45b5f:	e8 43 bb ff ff       	call   416a7 <io_wait>
   45b64:	c7 44 24 04 28 00 00 	movl   $0x28,0x4(%esp)
   45b6b:	00 
   45b6c:	c7 04 24 a1 00 00 00 	movl   $0xa1,(%esp)
   45b73:	e8 96 ba ff ff       	call   4160e <outb>
   45b78:	e8 2a bb ff ff       	call   416a7 <io_wait>
   45b7d:	c7 44 24 04 04 00 00 	movl   $0x4,0x4(%esp)
   45b84:	00 
   45b85:	c7 04 24 21 00 00 00 	movl   $0x21,(%esp)
   45b8c:	e8 7d ba ff ff       	call   4160e <outb>
   45b91:	e8 11 bb ff ff       	call   416a7 <io_wait>
   45b96:	c7 44 24 04 02 00 00 	movl   $0x2,0x4(%esp)
   45b9d:	00 
   45b9e:	c7 04 24 a1 00 00 00 	movl   $0xa1,(%esp)
   45ba5:	e8 64 ba ff ff       	call   4160e <outb>
   45baa:	e8 f8 ba ff ff       	call   416a7 <io_wait>
   45baf:	c7 44 24 04 01 00 00 	movl   $0x1,0x4(%esp)
   45bb6:	00 
   45bb7:	c7 04 24 21 00 00 00 	movl   $0x21,(%esp)
   45bbe:	e8 4b ba ff ff       	call   4160e <outb>
   45bc3:	e8 df ba ff ff       	call   416a7 <io_wait>
   45bc8:	c7 44 24 04 01 00 00 	movl   $0x1,0x4(%esp)
   45bcf:	00 
   45bd0:	c7 04 24 a1 00 00 00 	movl   $0xa1,(%esp)
   45bd7:	e8 32 ba ff ff       	call   4160e <outb>
   45bdc:	e8 c6 ba ff ff       	call   416a7 <io_wait>
   45be1:	80 65 f6 3f          	andb   $0x3f,-0xa(%ebp)
   45be5:	0f b6 45 f7          	movzbl -0x9(%ebp),%eax
   45be9:	89 44 24 04          	mov    %eax,0x4(%esp)
   45bed:	c7 04 24 21 00 00 00 	movl   $0x21,(%esp)
   45bf4:	e8 15 ba ff ff       	call   4160e <outb>
   45bf9:	e8 a9 ba ff ff       	call   416a7 <io_wait>
   45bfe:	0f b6 45 f6          	movzbl -0xa(%ebp),%eax
   45c02:	89 44 24 04          	mov    %eax,0x4(%esp)
   45c06:	c7 04 24 a1 00 00 00 	movl   $0xa1,(%esp)
   45c0d:	e8 fc b9 ff ff       	call   4160e <outb>
   45c12:	e8 90 ba ff ff       	call   416a7 <io_wait>
   45c17:	a1 50 80 04 00       	mov    0x48050,%eax
   45c1c:	89 04 24             	mov    %eax,(%esp)
   45c1f:	e8 bc d0 ff ff       	call   42ce0 <putstring>
   45c24:	90                   	nop
   45c25:	89 ec                	mov    %ebp,%esp
   45c27:	5d                   	pop    %ebp
   45c28:	c3                   	ret    

00045c29 <sata_irq>:
   45c29:	55                   	push   %ebp
   45c2a:	89 e5                	mov    %esp,%ebp
   45c2c:	0f 01 15 00 00 00 00 	lgdtl  0x0
   45c33:	90                   	nop
   45c34:	5d                   	pop    %ebp
   45c35:	c3                   	ret    

00045c36 <sata_write>:
   45c36:	55                   	push   %ebp
   45c37:	89 e5                	mov    %esp,%ebp
   45c39:	83 ec 38             	sub    $0x38,%esp
   45c3c:	89 5d fc             	mov    %ebx,-0x4(%ebp)
   45c3f:	8b 45 08             	mov    0x8(%ebp),%eax
   45c42:	8b 40 0c             	mov    0xc(%eax),%eax
   45c45:	89 45 ec             	mov    %eax,-0x14(%ebp)
   45c48:	8b 45 ec             	mov    -0x14(%ebp),%eax
   45c4b:	c7 40 10 ff ff ff ff 	movl   $0xffffffff,0x10(%eax)
   45c52:	c7 45 f4 00 00 00 00 	movl   $0x0,-0xc(%ebp)
   45c59:	8b 45 08             	mov    0x8(%ebp),%eax
   45c5c:	8b 40 10             	mov    0x10(%eax),%eax
   45c5f:	89 44 24 04          	mov    %eax,0x4(%esp)
   45c63:	8b 45 ec             	mov    -0x14(%ebp),%eax
   45c66:	89 04 24             	mov    %eax,(%esp)
   45c69:	e8 76 05 00 00       	call   461e4 <find_cmdslot>
   45c6e:	89 45 e8             	mov    %eax,-0x18(%ebp)
   45c71:	83 7d e8 ff          	cmpl   $0xffffffff,-0x18(%ebp)
   45c75:	75 0a                	jne    45c81 <sata_write+0x4b>
   45c77:	b8 00 00 00 00       	mov    $0x0,%eax
   45c7c:	e9 7d 02 00 00       	jmp    45efe <sata_write+0x2c8>
   45c81:	8b 45 ec             	mov    -0x14(%ebp),%eax
   45c84:	8b 00                	mov    (%eax),%eax
   45c86:	89 45 e4             	mov    %eax,-0x1c(%ebp)
   45c89:	8b 45 e8             	mov    -0x18(%ebp),%eax
   45c8c:	c1 e0 05             	shl    $0x5,%eax
   45c8f:	01 45 e4             	add    %eax,-0x1c(%ebp)
   45c92:	8b 45 e4             	mov    -0x1c(%ebp),%eax
   45c95:	0f b7 10             	movzwl (%eax),%edx
   45c98:	83 e2 e0             	and    $0xffffffe0,%edx
   45c9b:	83 ca 05             	or     $0x5,%edx
   45c9e:	66 89 10             	mov    %dx,(%eax)
   45ca1:	8b 45 e4             	mov    -0x1c(%ebp),%eax
   45ca4:	0f b7 10             	movzwl (%eax),%edx
   45ca7:	83 e2 bf             	and    $0xffffffbf,%edx
   45caa:	66 89 10             	mov    %dx,(%eax)
   45cad:	8b 45 14             	mov    0x14(%ebp),%eax
   45cb0:	48                   	dec    %eax
   45cb1:	c1 e8 04             	shr    $0x4,%eax
   45cb4:	fe c0                	inc    %al
   45cb6:	88 c2                	mov    %al,%dl
   45cb8:	8b 45 e4             	mov    -0x1c(%ebp),%eax
   45cbb:	88 50 02             	mov    %dl,0x2(%eax)
   45cbe:	8b 45 e4             	mov    -0x1c(%ebp),%eax
   45cc1:	8b 40 08             	mov    0x8(%eax),%eax
   45cc4:	89 45 e0             	mov    %eax,-0x20(%ebp)
   45cc7:	8b 45 e4             	mov    -0x1c(%ebp),%eax
   45cca:	0f b6 40 02          	movzbl 0x2(%eax),%eax
   45cce:	0f b6 c0             	movzbl %al,%eax
   45cd1:	83 c0 08             	add    $0x8,%eax
   45cd4:	c1 e0 04             	shl    $0x4,%eax
   45cd7:	89 44 24 08          	mov    %eax,0x8(%esp)
   45cdb:	c7 44 24 04 00 00 00 	movl   $0x0,0x4(%esp)
   45ce2:	00 
   45ce3:	8b 45 e0             	mov    -0x20(%ebp),%eax
   45ce6:	89 04 24             	mov    %eax,(%esp)
   45ce9:	e8 81 c7 ff ff       	call   4246f <memset>
   45cee:	c7 45 f0 00 00 00 00 	movl   $0x0,-0x10(%ebp)
   45cf5:	eb 59                	jmp    45d50 <sata_write+0x11a>
   45cf7:	8b 45 18             	mov    0x18(%ebp),%eax
   45cfa:	8b 4d e0             	mov    -0x20(%ebp),%ecx
   45cfd:	8b 55 f0             	mov    -0x10(%ebp),%edx
   45d00:	83 c2 08             	add    $0x8,%edx
   45d03:	c1 e2 04             	shl    $0x4,%edx
   45d06:	01 ca                	add    %ecx,%edx
   45d08:	89 02                	mov    %eax,(%edx)
   45d0a:	8b 55 e0             	mov    -0x20(%ebp),%edx
   45d0d:	8b 45 f0             	mov    -0x10(%ebp),%eax
   45d10:	83 c0 08             	add    $0x8,%eax
   45d13:	c1 e0 04             	shl    $0x4,%eax
   45d16:	01 d0                	add    %edx,%eax
   45d18:	8b 50 0c             	mov    0xc(%eax),%edx
   45d1b:	81 e2 00 00 c0 ff    	and    $0xffc00000,%edx
   45d21:	81 ca ff 1f 00 00    	or     $0x1fff,%edx
   45d27:	89 50 0c             	mov    %edx,0xc(%eax)
   45d2a:	8b 55 e0             	mov    -0x20(%ebp),%edx
   45d2d:	8b 45 f0             	mov    -0x10(%ebp),%eax
   45d30:	83 c0 08             	add    $0x8,%eax
   45d33:	c1 e0 04             	shl    $0x4,%eax
   45d36:	01 d0                	add    %edx,%eax
   45d38:	0f b6 50 0f          	movzbl 0xf(%eax),%edx
   45d3c:	80 ca 80             	or     $0x80,%dl
   45d3f:	88 50 0f             	mov    %dl,0xf(%eax)
   45d42:	81 45 18 00 10 00 00 	addl   $0x1000,0x18(%ebp)
   45d49:	83 6d 14 10          	subl   $0x10,0x14(%ebp)
   45d4d:	ff 45 f0             	incl   -0x10(%ebp)
   45d50:	8b 45 e4             	mov    -0x1c(%ebp),%eax
   45d53:	0f b6 40 02          	movzbl 0x2(%eax),%eax
   45d57:	0f b6 c0             	movzbl %al,%eax
   45d5a:	48                   	dec    %eax
   45d5b:	39 45 f0             	cmp    %eax,-0x10(%ebp)
   45d5e:	7c 97                	jl     45cf7 <sata_write+0xc1>
   45d60:	8b 45 18             	mov    0x18(%ebp),%eax
   45d63:	8b 4d e0             	mov    -0x20(%ebp),%ecx
   45d66:	8b 55 f0             	mov    -0x10(%ebp),%edx
   45d69:	83 c2 08             	add    $0x8,%edx
   45d6c:	c1 e2 04             	shl    $0x4,%edx
   45d6f:	01 ca                	add    %ecx,%edx
   45d71:	89 02                	mov    %eax,(%edx)
   45d73:	8b 45 14             	mov    0x14(%ebp),%eax
   45d76:	c1 e0 09             	shl    $0x9,%eax
   45d79:	48                   	dec    %eax
   45d7a:	25 ff ff 3f 00       	and    $0x3fffff,%eax
   45d7f:	89 c2                	mov    %eax,%edx
   45d81:	8b 4d e0             	mov    -0x20(%ebp),%ecx
   45d84:	8b 45 f0             	mov    -0x10(%ebp),%eax
   45d87:	83 c0 08             	add    $0x8,%eax
   45d8a:	c1 e0 04             	shl    $0x4,%eax
   45d8d:	01 c8                	add    %ecx,%eax
   45d8f:	89 d1                	mov    %edx,%ecx
   45d91:	81 e1 ff ff 3f 00    	and    $0x3fffff,%ecx
   45d97:	8b 50 0c             	mov    0xc(%eax),%edx
   45d9a:	81 e2 00 00 c0 ff    	and    $0xffc00000,%edx
   45da0:	09 ca                	or     %ecx,%edx
   45da2:	89 50 0c             	mov    %edx,0xc(%eax)
   45da5:	8b 55 e0             	mov    -0x20(%ebp),%edx
   45da8:	8b 45 f0             	mov    -0x10(%ebp),%eax
   45dab:	83 c0 08             	add    $0x8,%eax
   45dae:	c1 e0 04             	shl    $0x4,%eax
   45db1:	01 d0                	add    %edx,%eax
   45db3:	0f b6 50 0f          	movzbl 0xf(%eax),%edx
   45db7:	80 ca 80             	or     $0x80,%dl
   45dba:	88 50 0f             	mov    %dl,0xf(%eax)
   45dbd:	8b 45 e0             	mov    -0x20(%ebp),%eax
   45dc0:	89 45 dc             	mov    %eax,-0x24(%ebp)
   45dc3:	8b 45 dc             	mov    -0x24(%ebp),%eax
   45dc6:	c6 00 27             	movb   $0x27,(%eax)
   45dc9:	8b 45 dc             	mov    -0x24(%ebp),%eax
   45dcc:	0f b6 50 01          	movzbl 0x1(%eax),%edx
   45dd0:	80 ca 80             	or     $0x80,%dl
   45dd3:	88 50 01             	mov    %dl,0x1(%eax)
   45dd6:	8b 45 dc             	mov    -0x24(%ebp),%eax
   45dd9:	c6 40 02 35          	movb   $0x35,0x2(%eax)
   45ddd:	8b 45 0c             	mov    0xc(%ebp),%eax
   45de0:	88 c2                	mov    %al,%dl
   45de2:	8b 45 dc             	mov    -0x24(%ebp),%eax
   45de5:	88 50 04             	mov    %dl,0x4(%eax)
   45de8:	8b 45 0c             	mov    0xc(%ebp),%eax
   45deb:	c1 e8 08             	shr    $0x8,%eax
   45dee:	88 c2                	mov    %al,%dl
   45df0:	8b 45 dc             	mov    -0x24(%ebp),%eax
   45df3:	88 50 05             	mov    %dl,0x5(%eax)
   45df6:	8b 45 0c             	mov    0xc(%ebp),%eax
   45df9:	c1 e8 10             	shr    $0x10,%eax
   45dfc:	88 c2                	mov    %al,%dl
   45dfe:	8b 45 dc             	mov    -0x24(%ebp),%eax
   45e01:	88 50 06             	mov    %dl,0x6(%eax)
   45e04:	8b 45 dc             	mov    -0x24(%ebp),%eax
   45e07:	c6 40 07 40          	movb   $0x40,0x7(%eax)
   45e0b:	8b 45 0c             	mov    0xc(%ebp),%eax
   45e0e:	c1 e8 18             	shr    $0x18,%eax
   45e11:	88 c2                	mov    %al,%dl
   45e13:	8b 45 dc             	mov    -0x24(%ebp),%eax
   45e16:	88 50 08             	mov    %dl,0x8(%eax)
   45e19:	8b 45 10             	mov    0x10(%ebp),%eax
   45e1c:	88 c2                	mov    %al,%dl
   45e1e:	8b 45 dc             	mov    -0x24(%ebp),%eax
   45e21:	88 50 09             	mov    %dl,0x9(%eax)
   45e24:	8b 45 10             	mov    0x10(%ebp),%eax
   45e27:	c1 e8 08             	shr    $0x8,%eax
   45e2a:	88 c2                	mov    %al,%dl
   45e2c:	8b 45 dc             	mov    -0x24(%ebp),%eax
   45e2f:	88 50 0a             	mov    %dl,0xa(%eax)
   45e32:	8b 45 14             	mov    0x14(%ebp),%eax
   45e35:	88 c2                	mov    %al,%dl
   45e37:	8b 45 dc             	mov    -0x24(%ebp),%eax
   45e3a:	88 50 0c             	mov    %dl,0xc(%eax)
   45e3d:	8b 45 14             	mov    0x14(%ebp),%eax
   45e40:	c1 e8 08             	shr    $0x8,%eax
   45e43:	88 c2                	mov    %al,%dl
   45e45:	8b 45 dc             	mov    -0x24(%ebp),%eax
   45e48:	88 50 0d             	mov    %dl,0xd(%eax)
   45e4b:	eb 03                	jmp    45e50 <sata_write+0x21a>
   45e4d:	ff 45 f4             	incl   -0xc(%ebp)
   45e50:	8b 45 ec             	mov    -0x14(%ebp),%eax
   45e53:	8b 40 20             	mov    0x20(%eax),%eax
   45e56:	25 88 00 00 00       	and    $0x88,%eax
   45e5b:	85 c0                	test   %eax,%eax
   45e5d:	74 09                	je     45e68 <sata_write+0x232>
   45e5f:	81 7d f4 3f 42 0f 00 	cmpl   $0xf423f,-0xc(%ebp)
   45e66:	7e e5                	jle    45e4d <sata_write+0x217>
   45e68:	81 7d f4 40 42 0f 00 	cmpl   $0xf4240,-0xc(%ebp)
   45e6f:	75 13                	jne    45e84 <sata_write+0x24e>
   45e71:	c7 04 24 68 d1 04 00 	movl   $0x4d168,(%esp)
   45e78:	e8 63 ce ff ff       	call   42ce0 <putstring>
   45e7d:	b8 00 00 00 00       	mov    $0x0,%eax
   45e82:	eb 7a                	jmp    45efe <sata_write+0x2c8>
   45e84:	8b 45 e8             	mov    -0x18(%ebp),%eax
   45e87:	ba 01 00 00 00       	mov    $0x1,%edx
   45e8c:	88 c1                	mov    %al,%cl
   45e8e:	d3 e2                	shl    %cl,%edx
   45e90:	89 d0                	mov    %edx,%eax
   45e92:	89 c2                	mov    %eax,%edx
   45e94:	8b 45 ec             	mov    -0x14(%ebp),%eax
   45e97:	89 50 38             	mov    %edx,0x38(%eax)
   45e9a:	8b 45 ec             	mov    -0x14(%ebp),%eax
   45e9d:	8b 58 38             	mov    0x38(%eax),%ebx
   45ea0:	8b 45 e8             	mov    -0x18(%ebp),%eax
   45ea3:	ba 01 00 00 00       	mov    $0x1,%edx
   45ea8:	88 c1                	mov    %al,%cl
   45eaa:	d3 e2                	shl    %cl,%edx
   45eac:	89 d0                	mov    %edx,%eax
   45eae:	21 d8                	and    %ebx,%eax
   45eb0:	85 c0                	test   %eax,%eax
   45eb2:	74 22                	je     45ed6 <sata_write+0x2a0>
   45eb4:	8b 45 ec             	mov    -0x14(%ebp),%eax
   45eb7:	8b 40 10             	mov    0x10(%eax),%eax
   45eba:	25 00 00 00 40       	and    $0x40000000,%eax
   45ebf:	85 c0                	test   %eax,%eax
   45ec1:	74 d7                	je     45e9a <sata_write+0x264>
   45ec3:	c7 04 24 76 d1 04 00 	movl   $0x4d176,(%esp)
   45eca:	e8 11 ce ff ff       	call   42ce0 <putstring>
   45ecf:	b8 00 00 00 00       	mov    $0x0,%eax
   45ed4:	eb 28                	jmp    45efe <sata_write+0x2c8>
   45ed6:	90                   	nop
   45ed7:	8b 45 ec             	mov    -0x14(%ebp),%eax
   45eda:	8b 40 10             	mov    0x10(%eax),%eax
   45edd:	25 00 00 00 40       	and    $0x40000000,%eax
   45ee2:	85 c0                	test   %eax,%eax
   45ee4:	74 13                	je     45ef9 <sata_write+0x2c3>
   45ee6:	c7 04 24 76 d1 04 00 	movl   $0x4d176,(%esp)
   45eed:	e8 ee cd ff ff       	call   42ce0 <putstring>
   45ef2:	b8 00 00 00 00       	mov    $0x0,%eax
   45ef7:	eb 05                	jmp    45efe <sata_write+0x2c8>
   45ef9:	b8 01 00 00 00       	mov    $0x1,%eax
   45efe:	8b 5d fc             	mov    -0x4(%ebp),%ebx
   45f01:	89 ec                	mov    %ebp,%esp
   45f03:	5d                   	pop    %ebp
   45f04:	c3                   	ret    

00045f05 <sata_read>:
   45f05:	55                   	push   %ebp
   45f06:	89 e5                	mov    %esp,%ebp
   45f08:	83 ec 38             	sub    $0x38,%esp
   45f0b:	89 5d fc             	mov    %ebx,-0x4(%ebp)
   45f0e:	83 7d 14 00          	cmpl   $0x0,0x14(%ebp)
   45f12:	75 0a                	jne    45f1e <sata_read+0x19>
   45f14:	b8 01 00 00 00       	mov    $0x1,%eax
   45f19:	e9 bf 02 00 00       	jmp    461dd <sata_read+0x2d8>
   45f1e:	8b 45 08             	mov    0x8(%ebp),%eax
   45f21:	8b 40 0c             	mov    0xc(%eax),%eax
   45f24:	89 45 ec             	mov    %eax,-0x14(%ebp)
   45f27:	8b 45 ec             	mov    -0x14(%ebp),%eax
   45f2a:	c7 40 10 ff ff ff ff 	movl   $0xffffffff,0x10(%eax)
   45f31:	c7 45 f4 00 00 00 00 	movl   $0x0,-0xc(%ebp)
   45f38:	8b 45 08             	mov    0x8(%ebp),%eax
   45f3b:	8b 40 10             	mov    0x10(%eax),%eax
   45f3e:	89 44 24 04          	mov    %eax,0x4(%esp)
   45f42:	8b 45 ec             	mov    -0x14(%ebp),%eax
   45f45:	89 04 24             	mov    %eax,(%esp)
   45f48:	e8 97 02 00 00       	call   461e4 <find_cmdslot>
   45f4d:	89 45 e8             	mov    %eax,-0x18(%ebp)
   45f50:	83 7d e8 ff          	cmpl   $0xffffffff,-0x18(%ebp)
   45f54:	75 0a                	jne    45f60 <sata_read+0x5b>
   45f56:	b8 00 00 00 00       	mov    $0x0,%eax
   45f5b:	e9 7d 02 00 00       	jmp    461dd <sata_read+0x2d8>
   45f60:	8b 45 ec             	mov    -0x14(%ebp),%eax
   45f63:	8b 00                	mov    (%eax),%eax
   45f65:	89 45 e4             	mov    %eax,-0x1c(%ebp)
   45f68:	8b 45 e8             	mov    -0x18(%ebp),%eax
   45f6b:	c1 e0 05             	shl    $0x5,%eax
   45f6e:	01 45 e4             	add    %eax,-0x1c(%ebp)
   45f71:	8b 45 e4             	mov    -0x1c(%ebp),%eax
   45f74:	0f b7 10             	movzwl (%eax),%edx
   45f77:	83 e2 e0             	and    $0xffffffe0,%edx
   45f7a:	83 ca 05             	or     $0x5,%edx
   45f7d:	66 89 10             	mov    %dx,(%eax)
   45f80:	8b 45 e4             	mov    -0x1c(%ebp),%eax
   45f83:	0f b7 10             	movzwl (%eax),%edx
   45f86:	83 e2 bf             	and    $0xffffffbf,%edx
   45f89:	66 89 10             	mov    %dx,(%eax)
   45f8c:	8b 45 14             	mov    0x14(%ebp),%eax
   45f8f:	48                   	dec    %eax
   45f90:	c1 e8 04             	shr    $0x4,%eax
   45f93:	fe c0                	inc    %al
   45f95:	88 c2                	mov    %al,%dl
   45f97:	8b 45 e4             	mov    -0x1c(%ebp),%eax
   45f9a:	88 50 02             	mov    %dl,0x2(%eax)
   45f9d:	8b 45 e4             	mov    -0x1c(%ebp),%eax
   45fa0:	8b 40 08             	mov    0x8(%eax),%eax
   45fa3:	89 45 e0             	mov    %eax,-0x20(%ebp)
   45fa6:	8b 45 e4             	mov    -0x1c(%ebp),%eax
   45fa9:	0f b6 40 02          	movzbl 0x2(%eax),%eax
   45fad:	0f b6 c0             	movzbl %al,%eax
   45fb0:	83 c0 08             	add    $0x8,%eax
   45fb3:	c1 e0 04             	shl    $0x4,%eax
   45fb6:	89 44 24 08          	mov    %eax,0x8(%esp)
   45fba:	c7 44 24 04 00 00 00 	movl   $0x0,0x4(%esp)
   45fc1:	00 
   45fc2:	8b 45 e0             	mov    -0x20(%ebp),%eax
   45fc5:	89 04 24             	mov    %eax,(%esp)
   45fc8:	e8 a2 c4 ff ff       	call   4246f <memset>
   45fcd:	c7 45 f0 00 00 00 00 	movl   $0x0,-0x10(%ebp)
   45fd4:	eb 59                	jmp    4602f <sata_read+0x12a>
   45fd6:	8b 45 18             	mov    0x18(%ebp),%eax
   45fd9:	8b 4d e0             	mov    -0x20(%ebp),%ecx
   45fdc:	8b 55 f0             	mov    -0x10(%ebp),%edx
   45fdf:	83 c2 08             	add    $0x8,%edx
   45fe2:	c1 e2 04             	shl    $0x4,%edx
   45fe5:	01 ca                	add    %ecx,%edx
   45fe7:	89 02                	mov    %eax,(%edx)
   45fe9:	8b 55 e0             	mov    -0x20(%ebp),%edx
   45fec:	8b 45 f0             	mov    -0x10(%ebp),%eax
   45fef:	83 c0 08             	add    $0x8,%eax
   45ff2:	c1 e0 04             	shl    $0x4,%eax
   45ff5:	01 d0                	add    %edx,%eax
   45ff7:	8b 50 0c             	mov    0xc(%eax),%edx
   45ffa:	81 e2 00 00 c0 ff    	and    $0xffc00000,%edx
   46000:	81 ca ff 1f 00 00    	or     $0x1fff,%edx
   46006:	89 50 0c             	mov    %edx,0xc(%eax)
   46009:	8b 55 e0             	mov    -0x20(%ebp),%edx
   4600c:	8b 45 f0             	mov    -0x10(%ebp),%eax
   4600f:	83 c0 08             	add    $0x8,%eax
   46012:	c1 e0 04             	shl    $0x4,%eax
   46015:	01 d0                	add    %edx,%eax
   46017:	0f b6 50 0f          	movzbl 0xf(%eax),%edx
   4601b:	80 ca 80             	or     $0x80,%dl
   4601e:	88 50 0f             	mov    %dl,0xf(%eax)
   46021:	81 45 18 00 10 00 00 	addl   $0x1000,0x18(%ebp)
   46028:	83 6d 14 10          	subl   $0x10,0x14(%ebp)
   4602c:	ff 45 f0             	incl   -0x10(%ebp)
   4602f:	8b 45 e4             	mov    -0x1c(%ebp),%eax
   46032:	0f b6 40 02          	movzbl 0x2(%eax),%eax
   46036:	0f b6 c0             	movzbl %al,%eax
   46039:	48                   	dec    %eax
   4603a:	39 45 f0             	cmp    %eax,-0x10(%ebp)
   4603d:	7c 97                	jl     45fd6 <sata_read+0xd1>
   4603f:	8b 45 18             	mov    0x18(%ebp),%eax
   46042:	8b 4d e0             	mov    -0x20(%ebp),%ecx
   46045:	8b 55 f0             	mov    -0x10(%ebp),%edx
   46048:	83 c2 08             	add    $0x8,%edx
   4604b:	c1 e2 04             	shl    $0x4,%edx
   4604e:	01 ca                	add    %ecx,%edx
   46050:	89 02                	mov    %eax,(%edx)
   46052:	8b 45 14             	mov    0x14(%ebp),%eax
   46055:	c1 e0 09             	shl    $0x9,%eax
   46058:	48                   	dec    %eax
   46059:	25 ff ff 3f 00       	and    $0x3fffff,%eax
   4605e:	89 c2                	mov    %eax,%edx
   46060:	8b 4d e0             	mov    -0x20(%ebp),%ecx
   46063:	8b 45 f0             	mov    -0x10(%ebp),%eax
   46066:	83 c0 08             	add    $0x8,%eax
   46069:	c1 e0 04             	shl    $0x4,%eax
   4606c:	01 c8                	add    %ecx,%eax
   4606e:	89 d1                	mov    %edx,%ecx
   46070:	81 e1 ff ff 3f 00    	and    $0x3fffff,%ecx
   46076:	8b 50 0c             	mov    0xc(%eax),%edx
   46079:	81 e2 00 00 c0 ff    	and    $0xffc00000,%edx
   4607f:	09 ca                	or     %ecx,%edx
   46081:	89 50 0c             	mov    %edx,0xc(%eax)
   46084:	8b 55 e0             	mov    -0x20(%ebp),%edx
   46087:	8b 45 f0             	mov    -0x10(%ebp),%eax
   4608a:	83 c0 08             	add    $0x8,%eax
   4608d:	c1 e0 04             	shl    $0x4,%eax
   46090:	01 d0                	add    %edx,%eax
   46092:	0f b6 50 0f          	movzbl 0xf(%eax),%edx
   46096:	80 ca 80             	or     $0x80,%dl
   46099:	88 50 0f             	mov    %dl,0xf(%eax)
   4609c:	8b 45 e0             	mov    -0x20(%ebp),%eax
   4609f:	89 45 dc             	mov    %eax,-0x24(%ebp)
   460a2:	8b 45 dc             	mov    -0x24(%ebp),%eax
   460a5:	c6 00 27             	movb   $0x27,(%eax)
   460a8:	8b 45 dc             	mov    -0x24(%ebp),%eax
   460ab:	0f b6 50 01          	movzbl 0x1(%eax),%edx
   460af:	80 ca 80             	or     $0x80,%dl
   460b2:	88 50 01             	mov    %dl,0x1(%eax)
   460b5:	8b 45 dc             	mov    -0x24(%ebp),%eax
   460b8:	c6 40 02 25          	movb   $0x25,0x2(%eax)
   460bc:	8b 45 0c             	mov    0xc(%ebp),%eax
   460bf:	88 c2                	mov    %al,%dl
   460c1:	8b 45 dc             	mov    -0x24(%ebp),%eax
   460c4:	88 50 04             	mov    %dl,0x4(%eax)
   460c7:	8b 45 0c             	mov    0xc(%ebp),%eax
   460ca:	c1 e8 08             	shr    $0x8,%eax
   460cd:	88 c2                	mov    %al,%dl
   460cf:	8b 45 dc             	mov    -0x24(%ebp),%eax
   460d2:	88 50 05             	mov    %dl,0x5(%eax)
   460d5:	8b 45 0c             	mov    0xc(%ebp),%eax
   460d8:	c1 e8 10             	shr    $0x10,%eax
   460db:	88 c2                	mov    %al,%dl
   460dd:	8b 45 dc             	mov    -0x24(%ebp),%eax
   460e0:	88 50 06             	mov    %dl,0x6(%eax)
   460e3:	8b 45 dc             	mov    -0x24(%ebp),%eax
   460e6:	c6 40 07 40          	movb   $0x40,0x7(%eax)
   460ea:	8b 45 0c             	mov    0xc(%ebp),%eax
   460ed:	c1 e8 18             	shr    $0x18,%eax
   460f0:	88 c2                	mov    %al,%dl
   460f2:	8b 45 dc             	mov    -0x24(%ebp),%eax
   460f5:	88 50 08             	mov    %dl,0x8(%eax)
   460f8:	8b 45 10             	mov    0x10(%ebp),%eax
   460fb:	88 c2                	mov    %al,%dl
   460fd:	8b 45 dc             	mov    -0x24(%ebp),%eax
   46100:	88 50 09             	mov    %dl,0x9(%eax)
   46103:	8b 45 10             	mov    0x10(%ebp),%eax
   46106:	c1 e8 08             	shr    $0x8,%eax
   46109:	88 c2                	mov    %al,%dl
   4610b:	8b 45 dc             	mov    -0x24(%ebp),%eax
   4610e:	88 50 0a             	mov    %dl,0xa(%eax)
   46111:	8b 45 14             	mov    0x14(%ebp),%eax
   46114:	88 c2                	mov    %al,%dl
   46116:	8b 45 dc             	mov    -0x24(%ebp),%eax
   46119:	88 50 0c             	mov    %dl,0xc(%eax)
   4611c:	8b 45 14             	mov    0x14(%ebp),%eax
   4611f:	c1 e8 08             	shr    $0x8,%eax
   46122:	88 c2                	mov    %al,%dl
   46124:	8b 45 dc             	mov    -0x24(%ebp),%eax
   46127:	88 50 0d             	mov    %dl,0xd(%eax)
   4612a:	eb 03                	jmp    4612f <sata_read+0x22a>
   4612c:	ff 45 f4             	incl   -0xc(%ebp)
   4612f:	8b 45 ec             	mov    -0x14(%ebp),%eax
   46132:	8b 40 20             	mov    0x20(%eax),%eax
   46135:	25 88 00 00 00       	and    $0x88,%eax
   4613a:	85 c0                	test   %eax,%eax
   4613c:	74 09                	je     46147 <sata_read+0x242>
   4613e:	81 7d f4 3f 42 0f 00 	cmpl   $0xf423f,-0xc(%ebp)
   46145:	7e e5                	jle    4612c <sata_read+0x227>
   46147:	81 7d f4 40 42 0f 00 	cmpl   $0xf4240,-0xc(%ebp)
   4614e:	75 13                	jne    46163 <sata_read+0x25e>
   46150:	c7 04 24 68 d1 04 00 	movl   $0x4d168,(%esp)
   46157:	e8 84 cb ff ff       	call   42ce0 <putstring>
   4615c:	b8 00 00 00 00       	mov    $0x0,%eax
   46161:	eb 7a                	jmp    461dd <sata_read+0x2d8>
   46163:	8b 45 e8             	mov    -0x18(%ebp),%eax
   46166:	ba 01 00 00 00       	mov    $0x1,%edx
   4616b:	88 c1                	mov    %al,%cl
   4616d:	d3 e2                	shl    %cl,%edx
   4616f:	89 d0                	mov    %edx,%eax
   46171:	89 c2                	mov    %eax,%edx
   46173:	8b 45 ec             	mov    -0x14(%ebp),%eax
   46176:	89 50 38             	mov    %edx,0x38(%eax)
   46179:	8b 45 ec             	mov    -0x14(%ebp),%eax
   4617c:	8b 58 38             	mov    0x38(%eax),%ebx
   4617f:	8b 45 e8             	mov    -0x18(%ebp),%eax
   46182:	ba 01 00 00 00       	mov    $0x1,%edx
   46187:	88 c1                	mov    %al,%cl
   46189:	d3 e2                	shl    %cl,%edx
   4618b:	89 d0                	mov    %edx,%eax
   4618d:	21 d8                	and    %ebx,%eax
   4618f:	85 c0                	test   %eax,%eax
   46191:	74 22                	je     461b5 <sata_read+0x2b0>
   46193:	8b 45 ec             	mov    -0x14(%ebp),%eax
   46196:	8b 40 10             	mov    0x10(%eax),%eax
   46199:	25 00 00 00 40       	and    $0x40000000,%eax
   4619e:	85 c0                	test   %eax,%eax
   461a0:	74 d7                	je     46179 <sata_read+0x274>
   461a2:	c7 04 24 88 d1 04 00 	movl   $0x4d188,(%esp)
   461a9:	e8 32 cb ff ff       	call   42ce0 <putstring>
   461ae:	b8 00 00 00 00       	mov    $0x0,%eax
   461b3:	eb 28                	jmp    461dd <sata_read+0x2d8>
   461b5:	90                   	nop
   461b6:	8b 45 ec             	mov    -0x14(%ebp),%eax
   461b9:	8b 40 10             	mov    0x10(%eax),%eax
   461bc:	25 00 00 00 40       	and    $0x40000000,%eax
   461c1:	85 c0                	test   %eax,%eax
   461c3:	74 13                	je     461d8 <sata_read+0x2d3>
   461c5:	c7 04 24 88 d1 04 00 	movl   $0x4d188,(%esp)
   461cc:	e8 0f cb ff ff       	call   42ce0 <putstring>
   461d1:	b8 00 00 00 00       	mov    $0x0,%eax
   461d6:	eb 05                	jmp    461dd <sata_read+0x2d8>
   461d8:	b8 01 00 00 00       	mov    $0x1,%eax
   461dd:	8b 5d fc             	mov    -0x4(%ebp),%ebx
   461e0:	89 ec                	mov    %ebp,%esp
   461e2:	5d                   	pop    %ebp
   461e3:	c3                   	ret    

000461e4 <find_cmdslot>:
   461e4:	55                   	push   %ebp
   461e5:	89 e5                	mov    %esp,%ebp
   461e7:	83 ec 28             	sub    $0x28,%esp
   461ea:	8b 45 08             	mov    0x8(%ebp),%eax
   461ed:	8b 50 34             	mov    0x34(%eax),%edx
   461f0:	8b 45 08             	mov    0x8(%ebp),%eax
   461f3:	8b 40 38             	mov    0x38(%eax),%eax
   461f6:	09 d0                	or     %edx,%eax
   461f8:	89 45 f4             	mov    %eax,-0xc(%ebp)
   461fb:	8b 45 0c             	mov    0xc(%ebp),%eax
   461fe:	8b 00                	mov    (%eax),%eax
   46200:	c1 e8 08             	shr    $0x8,%eax
   46203:	83 e0 0f             	and    $0xf,%eax
   46206:	89 45 ec             	mov    %eax,-0x14(%ebp)
   46209:	c7 45 f0 00 00 00 00 	movl   $0x0,-0x10(%ebp)
   46210:	eb 15                	jmp    46227 <find_cmdslot+0x43>
   46212:	8b 45 f4             	mov    -0xc(%ebp),%eax
   46215:	83 e0 01             	and    $0x1,%eax
   46218:	85 c0                	test   %eax,%eax
   4621a:	75 05                	jne    46221 <find_cmdslot+0x3d>
   4621c:	8b 45 f0             	mov    -0x10(%ebp),%eax
   4621f:	eb 1f                	jmp    46240 <find_cmdslot+0x5c>
   46221:	d1 6d f4             	shrl   -0xc(%ebp)
   46224:	ff 45 f0             	incl   -0x10(%ebp)
   46227:	8b 45 f0             	mov    -0x10(%ebp),%eax
   4622a:	3b 45 ec             	cmp    -0x14(%ebp),%eax
   4622d:	7c e3                	jl     46212 <find_cmdslot+0x2e>
   4622f:	c7 04 24 9c d1 04 00 	movl   $0x4d19c,(%esp)
   46236:	e8 a5 ca ff ff       	call   42ce0 <putstring>
   4623b:	b8 ff ff ff ff       	mov    $0xffffffff,%eax
   46240:	89 ec                	mov    %ebp,%esp
   46242:	5d                   	pop    %ebp
   46243:	c3                   	ret    

00046244 <port_rebase>:
   46244:	55                   	push   %ebp
   46245:	89 e5                	mov    %esp,%ebp
   46247:	83 ec 28             	sub    $0x28,%esp
   4624a:	8b 45 08             	mov    0x8(%ebp),%eax
   4624d:	89 04 24             	mov    %eax,(%esp)
   46250:	e8 7c 01 00 00       	call   463d1 <stop_cmd>
   46255:	8b 45 08             	mov    0x8(%ebp),%eax
   46258:	8b 40 18             	mov    0x18(%eax),%eax
   4625b:	25 ee 3f ff ff       	and    $0xffff3fee,%eax
   46260:	89 c2                	mov    %eax,%edx
   46262:	8b 45 08             	mov    0x8(%ebp),%eax
   46265:	89 50 18             	mov    %edx,0x18(%eax)
   46268:	8b 15 38 cf 04 00    	mov    0x4cf38,%edx
   4626e:	8b 45 0c             	mov    0xc(%ebp),%eax
   46271:	c1 e0 0a             	shl    $0xa,%eax
   46274:	01 d0                	add    %edx,%eax
   46276:	89 c2                	mov    %eax,%edx
   46278:	8b 45 08             	mov    0x8(%ebp),%eax
   4627b:	89 10                	mov    %edx,(%eax)
   4627d:	8b 45 08             	mov    0x8(%ebp),%eax
   46280:	c7 40 04 00 00 00 00 	movl   $0x0,0x4(%eax)
   46287:	8b 45 08             	mov    0x8(%ebp),%eax
   4628a:	8b 00                	mov    (%eax),%eax
   4628c:	c7 44 24 08 00 04 00 	movl   $0x400,0x8(%esp)
   46293:	00 
   46294:	c7 44 24 04 00 00 00 	movl   $0x0,0x4(%esp)
   4629b:	00 
   4629c:	89 04 24             	mov    %eax,(%esp)
   4629f:	e8 cb c1 ff ff       	call   4246f <memset>
   462a4:	8b 15 38 cf 04 00    	mov    0x4cf38,%edx
   462aa:	8b 45 0c             	mov    0xc(%ebp),%eax
   462ad:	c1 e0 08             	shl    $0x8,%eax
   462b0:	05 00 80 00 00       	add    $0x8000,%eax
   462b5:	01 d0                	add    %edx,%eax
   462b7:	89 c2                	mov    %eax,%edx
   462b9:	8b 45 08             	mov    0x8(%ebp),%eax
   462bc:	89 50 08             	mov    %edx,0x8(%eax)
   462bf:	8b 45 08             	mov    0x8(%ebp),%eax
   462c2:	c7 40 0c 00 00 00 00 	movl   $0x0,0xc(%eax)
   462c9:	8b 45 08             	mov    0x8(%ebp),%eax
   462cc:	8b 40 08             	mov    0x8(%eax),%eax
   462cf:	c7 44 24 08 00 01 00 	movl   $0x100,0x8(%esp)
   462d6:	00 
   462d7:	c7 44 24 04 00 00 00 	movl   $0x0,0x4(%esp)
   462de:	00 
   462df:	89 04 24             	mov    %eax,(%esp)
   462e2:	e8 88 c1 ff ff       	call   4246f <memset>
   462e7:	8b 45 08             	mov    0x8(%ebp),%eax
   462ea:	c7 40 30 01 00 00 00 	movl   $0x1,0x30(%eax)
   462f1:	8b 45 08             	mov    0x8(%ebp),%eax
   462f4:	8b 00                	mov    (%eax),%eax
   462f6:	89 45 f0             	mov    %eax,-0x10(%ebp)
   462f9:	c7 45 f4 00 00 00 00 	movl   $0x0,-0xc(%ebp)
   46300:	eb 7d                	jmp    4637f <port_rebase+0x13b>
   46302:	8b 45 f4             	mov    -0xc(%ebp),%eax
   46305:	c1 e0 05             	shl    $0x5,%eax
   46308:	89 c2                	mov    %eax,%edx
   4630a:	8b 45 f0             	mov    -0x10(%ebp),%eax
   4630d:	01 d0                	add    %edx,%eax
   4630f:	c6 40 02 08          	movb   $0x8,0x2(%eax)
   46313:	8b 15 38 cf 04 00    	mov    0x4cf38,%edx
   46319:	8b 45 0c             	mov    0xc(%ebp),%eax
   4631c:	c1 e0 0d             	shl    $0xd,%eax
   4631f:	89 c1                	mov    %eax,%ecx
   46321:	8b 45 f4             	mov    -0xc(%ebp),%eax
   46324:	c1 e0 08             	shl    $0x8,%eax
   46327:	01 c8                	add    %ecx,%eax
   46329:	05 00 a0 00 00       	add    $0xa000,%eax
   4632e:	01 c2                	add    %eax,%edx
   46330:	8b 45 f4             	mov    -0xc(%ebp),%eax
   46333:	c1 e0 05             	shl    $0x5,%eax
   46336:	89 c1                	mov    %eax,%ecx
   46338:	8b 45 f0             	mov    -0x10(%ebp),%eax
   4633b:	01 c8                	add    %ecx,%eax
   4633d:	89 50 08             	mov    %edx,0x8(%eax)
   46340:	8b 45 f4             	mov    -0xc(%ebp),%eax
   46343:	c1 e0 05             	shl    $0x5,%eax
   46346:	89 c2                	mov    %eax,%edx
   46348:	8b 45 f0             	mov    -0x10(%ebp),%eax
   4634b:	01 d0                	add    %edx,%eax
   4634d:	c7 40 0c 00 00 00 00 	movl   $0x0,0xc(%eax)
   46354:	8b 45 f4             	mov    -0xc(%ebp),%eax
   46357:	c1 e0 05             	shl    $0x5,%eax
   4635a:	89 c2                	mov    %eax,%edx
   4635c:	8b 45 f0             	mov    -0x10(%ebp),%eax
   4635f:	01 d0                	add    %edx,%eax
   46361:	8b 40 08             	mov    0x8(%eax),%eax
   46364:	c7 44 24 08 00 01 00 	movl   $0x100,0x8(%esp)
   4636b:	00 
   4636c:	c7 44 24 04 00 00 00 	movl   $0x0,0x4(%esp)
   46373:	00 
   46374:	89 04 24             	mov    %eax,(%esp)
   46377:	e8 f3 c0 ff ff       	call   4246f <memset>
   4637c:	ff 45 f4             	incl   -0xc(%ebp)
   4637f:	83 7d f4 1f          	cmpl   $0x1f,-0xc(%ebp)
   46383:	0f 8e 79 ff ff ff    	jle    46302 <port_rebase+0xbe>
   46389:	8b 45 08             	mov    0x8(%ebp),%eax
   4638c:	89 04 24             	mov    %eax,(%esp)
   4638f:	e8 05 00 00 00       	call   46399 <start_cmd>
   46394:	90                   	nop
   46395:	89 ec                	mov    %ebp,%esp
   46397:	5d                   	pop    %ebp
   46398:	c3                   	ret    

00046399 <start_cmd>:
   46399:	55                   	push   %ebp
   4639a:	89 e5                	mov    %esp,%ebp
   4639c:	90                   	nop
   4639d:	8b 45 08             	mov    0x8(%ebp),%eax
   463a0:	8b 40 18             	mov    0x18(%eax),%eax
   463a3:	25 00 80 00 00       	and    $0x8000,%eax
   463a8:	85 c0                	test   %eax,%eax
   463aa:	75 f1                	jne    4639d <start_cmd+0x4>
   463ac:	8b 45 08             	mov    0x8(%ebp),%eax
   463af:	8b 40 18             	mov    0x18(%eax),%eax
   463b2:	83 c8 10             	or     $0x10,%eax
   463b5:	89 c2                	mov    %eax,%edx
   463b7:	8b 45 08             	mov    0x8(%ebp),%eax
   463ba:	89 50 18             	mov    %edx,0x18(%eax)
   463bd:	8b 45 08             	mov    0x8(%ebp),%eax
   463c0:	8b 40 18             	mov    0x18(%eax),%eax
   463c3:	83 c8 01             	or     $0x1,%eax
   463c6:	89 c2                	mov    %eax,%edx
   463c8:	8b 45 08             	mov    0x8(%ebp),%eax
   463cb:	89 50 18             	mov    %edx,0x18(%eax)
   463ce:	90                   	nop
   463cf:	5d                   	pop    %ebp
   463d0:	c3                   	ret    

000463d1 <stop_cmd>:
   463d1:	55                   	push   %ebp
   463d2:	89 e5                	mov    %esp,%ebp
   463d4:	8b 45 08             	mov    0x8(%ebp),%eax
   463d7:	8b 40 18             	mov    0x18(%eax),%eax
   463da:	83 e0 fe             	and    $0xfffffffe,%eax
   463dd:	89 c2                	mov    %eax,%edx
   463df:	8b 45 08             	mov    0x8(%ebp),%eax
   463e2:	89 50 18             	mov    %edx,0x18(%eax)
   463e5:	8b 45 08             	mov    0x8(%ebp),%eax
   463e8:	8b 40 18             	mov    0x18(%eax),%eax
   463eb:	83 e0 ef             	and    $0xffffffef,%eax
   463ee:	89 c2                	mov    %eax,%edx
   463f0:	8b 45 08             	mov    0x8(%ebp),%eax
   463f3:	89 50 18             	mov    %edx,0x18(%eax)
   463f6:	8b 45 08             	mov    0x8(%ebp),%eax
   463f9:	8b 40 18             	mov    0x18(%eax),%eax
   463fc:	25 00 40 00 00       	and    $0x4000,%eax
   46401:	85 c0                	test   %eax,%eax
   46403:	75 11                	jne    46416 <stop_cmd+0x45>
   46405:	8b 45 08             	mov    0x8(%ebp),%eax
   46408:	8b 40 18             	mov    0x18(%eax),%eax
   4640b:	25 00 80 00 00       	and    $0x8000,%eax
   46410:	85 c0                	test   %eax,%eax
   46412:	74 05                	je     46419 <stop_cmd+0x48>
   46414:	eb 01                	jmp    46417 <stop_cmd+0x46>
   46416:	90                   	nop
   46417:	eb dd                	jmp    463f6 <stop_cmd+0x25>
   46419:	90                   	nop
   4641a:	90                   	nop
   4641b:	5d                   	pop    %ebp
   4641c:	c3                   	ret    

0004641d <check_type>:
   4641d:	55                   	push   %ebp
   4641e:	89 e5                	mov    %esp,%ebp
   46420:	83 ec 10             	sub    $0x10,%esp
   46423:	8b 45 08             	mov    0x8(%ebp),%eax
   46426:	8b 40 28             	mov    0x28(%eax),%eax
   46429:	89 45 fc             	mov    %eax,-0x4(%ebp)
   4642c:	8b 45 fc             	mov    -0x4(%ebp),%eax
   4642f:	c1 e8 08             	shr    $0x8,%eax
   46432:	24 0f                	and    $0xf,%al
   46434:	88 45 fb             	mov    %al,-0x5(%ebp)
   46437:	8b 45 fc             	mov    -0x4(%ebp),%eax
   4643a:	24 0f                	and    $0xf,%al
   4643c:	88 45 fa             	mov    %al,-0x6(%ebp)
   4643f:	80 7d fa 03          	cmpb   $0x3,-0x6(%ebp)
   46443:	74 07                	je     4644c <check_type+0x2f>
   46445:	b8 00 00 00 00       	mov    $0x0,%eax
   4644a:	eb 4b                	jmp    46497 <check_type+0x7a>
   4644c:	80 7d fb 01          	cmpb   $0x1,-0x5(%ebp)
   46450:	74 07                	je     46459 <check_type+0x3c>
   46452:	b8 00 00 00 00       	mov    $0x0,%eax
   46457:	eb 3e                	jmp    46497 <check_type+0x7a>
   46459:	8b 45 08             	mov    0x8(%ebp),%eax
   4645c:	8b 40 24             	mov    0x24(%eax),%eax
   4645f:	3d 01 01 14 eb       	cmp    $0xeb140101,%eax
   46464:	74 17                	je     4647d <check_type+0x60>
   46466:	3d 01 01 14 eb       	cmp    $0xeb140101,%eax
   4646b:	77 25                	ja     46492 <check_type+0x75>
   4646d:	3d 01 01 69 96       	cmp    $0x96690101,%eax
   46472:	74 17                	je     4648b <check_type+0x6e>
   46474:	3d 01 01 3c c3       	cmp    $0xc33c0101,%eax
   46479:	74 09                	je     46484 <check_type+0x67>
   4647b:	eb 15                	jmp    46492 <check_type+0x75>
   4647d:	b8 04 00 00 00       	mov    $0x4,%eax
   46482:	eb 13                	jmp    46497 <check_type+0x7a>
   46484:	b8 02 00 00 00       	mov    $0x2,%eax
   46489:	eb 0c                	jmp    46497 <check_type+0x7a>
   4648b:	b8 03 00 00 00       	mov    $0x3,%eax
   46490:	eb 05                	jmp    46497 <check_type+0x7a>
   46492:	b8 01 00 00 00       	mov    $0x1,%eax
   46497:	89 ec                	mov    %ebp,%esp
   46499:	5d                   	pop    %ebp
   4649a:	c3                   	ret    

0004649b <sata_devfs_read>:
   4649b:	55                   	push   %ebp
   4649c:	89 e5                	mov    %esp,%ebp
   4649e:	83 ec 48             	sub    $0x48,%esp
   464a1:	8b 45 08             	mov    0x8(%ebp),%eax
   464a4:	89 04 24             	mov    %eax,(%esp)
   464a7:	e8 da 0c 00 00       	call   47186 <fd_node_find>
   464ac:	8b 80 38 01 00 00    	mov    0x138(%eax),%eax
   464b2:	89 45 f0             	mov    %eax,-0x10(%ebp)
   464b5:	a1 3c cf 04 00       	mov    0x4cf3c,%eax
   464ba:	89 45 f4             	mov    %eax,-0xc(%ebp)
   464bd:	e9 53 01 00 00       	jmp    46615 <sata_devfs_read+0x17a>
   464c2:	8b 45 f4             	mov    -0xc(%ebp),%eax
   464c5:	8b 50 04             	mov    0x4(%eax),%edx
   464c8:	8b 45 f0             	mov    -0x10(%ebp),%eax
   464cb:	39 c2                	cmp    %eax,%edx
   464cd:	0f 85 3a 01 00 00    	jne    4660d <sata_devfs_read+0x172>
   464d3:	8b 45 14             	mov    0x14(%ebp),%eax
   464d6:	25 ff 01 00 00       	and    $0x1ff,%eax
   464db:	89 45 ec             	mov    %eax,-0x14(%ebp)
   464de:	c7 04 24 00 02 00 00 	movl   $0x200,(%esp)
   464e5:	e8 07 ab ff ff       	call   40ff1 <khmalloc>
   464ea:	89 45 e8             	mov    %eax,-0x18(%ebp)
   464ed:	8b 45 14             	mov    0x14(%ebp),%eax
   464f0:	c1 e8 09             	shr    $0x9,%eax
   464f3:	89 c2                	mov    %eax,%edx
   464f5:	8b 45 e8             	mov    -0x18(%ebp),%eax
   464f8:	89 44 24 10          	mov    %eax,0x10(%esp)
   464fc:	c7 44 24 0c 01 00 00 	movl   $0x1,0xc(%esp)
   46503:	00 
   46504:	c7 44 24 08 00 00 00 	movl   $0x0,0x8(%esp)
   4650b:	00 
   4650c:	89 54 24 04          	mov    %edx,0x4(%esp)
   46510:	8b 45 f4             	mov    -0xc(%ebp),%eax
   46513:	89 04 24             	mov    %eax,(%esp)
   46516:	e8 ea f9 ff ff       	call   45f05 <sata_read>
   4651b:	b8 00 02 00 00       	mov    $0x200,%eax
   46520:	2b 45 ec             	sub    -0x14(%ebp),%eax
   46523:	8b 4d e8             	mov    -0x18(%ebp),%ecx
   46526:	8b 55 ec             	mov    -0x14(%ebp),%edx
   46529:	01 ca                	add    %ecx,%edx
   4652b:	89 44 24 08          	mov    %eax,0x8(%esp)
   4652f:	89 54 24 04          	mov    %edx,0x4(%esp)
   46533:	8b 45 0c             	mov    0xc(%ebp),%eax
   46536:	89 04 24             	mov    %eax,(%esp)
   46539:	e8 13 b8 ff ff       	call   41d51 <memcpy>
   4653e:	b8 00 02 00 00       	mov    $0x200,%eax
   46543:	2b 45 ec             	sub    -0x14(%ebp),%eax
   46546:	01 45 0c             	add    %eax,0xc(%ebp)
   46549:	8b 45 14             	mov    0x14(%ebp),%eax
   4654c:	2b 45 ec             	sub    -0x14(%ebp),%eax
   4654f:	05 00 02 00 00       	add    $0x200,%eax
   46554:	89 45 14             	mov    %eax,0x14(%ebp)
   46557:	8b 55 ec             	mov    -0x14(%ebp),%edx
   4655a:	8b 45 10             	mov    0x10(%ebp),%eax
   4655d:	01 d0                	add    %edx,%eax
   4655f:	2d 00 02 00 00       	sub    $0x200,%eax
   46564:	89 45 10             	mov    %eax,0x10(%ebp)
   46567:	8b 45 10             	mov    0x10(%ebp),%eax
   4656a:	25 ff 01 00 00       	and    $0x1ff,%eax
   4656f:	89 45 e4             	mov    %eax,-0x1c(%ebp)
   46572:	8b 45 10             	mov    0x10(%ebp),%eax
   46575:	c1 e8 09             	shr    $0x9,%eax
   46578:	89 c1                	mov    %eax,%ecx
   4657a:	8b 45 14             	mov    0x14(%ebp),%eax
   4657d:	c1 e8 09             	shr    $0x9,%eax
   46580:	89 c2                	mov    %eax,%edx
   46582:	8b 45 0c             	mov    0xc(%ebp),%eax
   46585:	89 44 24 10          	mov    %eax,0x10(%esp)
   46589:	89 4c 24 0c          	mov    %ecx,0xc(%esp)
   4658d:	c7 44 24 08 00 00 00 	movl   $0x0,0x8(%esp)
   46594:	00 
   46595:	89 54 24 04          	mov    %edx,0x4(%esp)
   46599:	8b 45 f4             	mov    -0xc(%ebp),%eax
   4659c:	89 04 24             	mov    %eax,(%esp)
   4659f:	e8 61 f9 ff ff       	call   45f05 <sata_read>
   465a4:	8b 45 10             	mov    0x10(%ebp),%eax
   465a7:	01 45 14             	add    %eax,0x14(%ebp)
   465aa:	8b 45 14             	mov    0x14(%ebp),%eax
   465ad:	c1 e8 09             	shr    $0x9,%eax
   465b0:	89 c2                	mov    %eax,%edx
   465b2:	8b 45 e8             	mov    -0x18(%ebp),%eax
   465b5:	89 44 24 10          	mov    %eax,0x10(%esp)
   465b9:	c7 44 24 0c 01 00 00 	movl   $0x1,0xc(%esp)
   465c0:	00 
   465c1:	c7 44 24 08 00 00 00 	movl   $0x0,0x8(%esp)
   465c8:	00 
   465c9:	89 54 24 04          	mov    %edx,0x4(%esp)
   465cd:	8b 45 f4             	mov    -0xc(%ebp),%eax
   465d0:	89 04 24             	mov    %eax,(%esp)
   465d3:	e8 2d f9 ff ff       	call   45f05 <sata_read>
   465d8:	8b 45 10             	mov    0x10(%ebp),%eax
   465db:	25 ff 01 00 00       	and    $0x1ff,%eax
   465e0:	89 c1                	mov    %eax,%ecx
   465e2:	8b 45 10             	mov    0x10(%ebp),%eax
   465e5:	2b 45 e4             	sub    -0x1c(%ebp),%eax
   465e8:	89 c2                	mov    %eax,%edx
   465ea:	8b 45 0c             	mov    0xc(%ebp),%eax
   465ed:	01 c2                	add    %eax,%edx
   465ef:	89 4c 24 08          	mov    %ecx,0x8(%esp)
   465f3:	8b 45 e8             	mov    -0x18(%ebp),%eax
   465f6:	89 44 24 04          	mov    %eax,0x4(%esp)
   465fa:	89 14 24             	mov    %edx,(%esp)
   465fd:	e8 4f b7 ff ff       	call   41d51 <memcpy>
   46602:	8b 45 e8             	mov    -0x18(%ebp),%eax
   46605:	89 04 24             	mov    %eax,(%esp)
   46608:	e8 29 aa ff ff       	call   41036 <khfree>
   4660d:	8b 45 f4             	mov    -0xc(%ebp),%eax
   46610:	8b 00                	mov    (%eax),%eax
   46612:	89 45 f4             	mov    %eax,-0xc(%ebp)
   46615:	83 7d f4 00          	cmpl   $0x0,-0xc(%ebp)
   46619:	0f 85 a3 fe ff ff    	jne    464c2 <sata_devfs_read+0x27>
   4661f:	b8 00 00 00 00       	mov    $0x0,%eax
   46624:	89 ec                	mov    %ebp,%esp
   46626:	5d                   	pop    %ebp
   46627:	c3                   	ret    

00046628 <sata_devfs_write>:
   46628:	55                   	push   %ebp
   46629:	89 e5                	mov    %esp,%ebp
   4662b:	83 ec 48             	sub    $0x48,%esp
   4662e:	8b 45 08             	mov    0x8(%ebp),%eax
   46631:	89 04 24             	mov    %eax,(%esp)
   46634:	e8 4d 0b 00 00       	call   47186 <fd_node_find>
   46639:	8b 80 38 01 00 00    	mov    0x138(%eax),%eax
   4663f:	89 45 f0             	mov    %eax,-0x10(%ebp)
   46642:	a1 3c cf 04 00       	mov    0x4cf3c,%eax
   46647:	89 45 f4             	mov    %eax,-0xc(%ebp)
   4664a:	e9 9e 01 00 00       	jmp    467ed <sata_devfs_write+0x1c5>
   4664f:	8b 45 14             	mov    0x14(%ebp),%eax
   46652:	25 ff 01 00 00       	and    $0x1ff,%eax
   46657:	89 45 ec             	mov    %eax,-0x14(%ebp)
   4665a:	c7 04 24 00 02 00 00 	movl   $0x200,(%esp)
   46661:	e8 8b a9 ff ff       	call   40ff1 <khmalloc>
   46666:	89 45 e8             	mov    %eax,-0x18(%ebp)
   46669:	8b 45 14             	mov    0x14(%ebp),%eax
   4666c:	c1 e8 09             	shr    $0x9,%eax
   4666f:	89 c2                	mov    %eax,%edx
   46671:	8b 45 e8             	mov    -0x18(%ebp),%eax
   46674:	89 44 24 10          	mov    %eax,0x10(%esp)
   46678:	c7 44 24 0c 01 00 00 	movl   $0x1,0xc(%esp)
   4667f:	00 
   46680:	c7 44 24 08 00 00 00 	movl   $0x0,0x8(%esp)
   46687:	00 
   46688:	89 54 24 04          	mov    %edx,0x4(%esp)
   4668c:	8b 45 f4             	mov    -0xc(%ebp),%eax
   4668f:	89 04 24             	mov    %eax,(%esp)
   46692:	e8 6e f8 ff ff       	call   45f05 <sata_read>
   46697:	b8 00 02 00 00       	mov    $0x200,%eax
   4669c:	2b 45 ec             	sub    -0x14(%ebp),%eax
   4669f:	8b 4d e8             	mov    -0x18(%ebp),%ecx
   466a2:	8b 55 ec             	mov    -0x14(%ebp),%edx
   466a5:	01 ca                	add    %ecx,%edx
   466a7:	89 44 24 08          	mov    %eax,0x8(%esp)
   466ab:	8b 45 0c             	mov    0xc(%ebp),%eax
   466ae:	89 44 24 04          	mov    %eax,0x4(%esp)
   466b2:	89 14 24             	mov    %edx,(%esp)
   466b5:	e8 97 b6 ff ff       	call   41d51 <memcpy>
   466ba:	8b 45 14             	mov    0x14(%ebp),%eax
   466bd:	c1 e8 09             	shr    $0x9,%eax
   466c0:	89 c2                	mov    %eax,%edx
   466c2:	8b 45 e8             	mov    -0x18(%ebp),%eax
   466c5:	89 44 24 10          	mov    %eax,0x10(%esp)
   466c9:	c7 44 24 0c 01 00 00 	movl   $0x1,0xc(%esp)
   466d0:	00 
   466d1:	c7 44 24 08 00 00 00 	movl   $0x0,0x8(%esp)
   466d8:	00 
   466d9:	89 54 24 04          	mov    %edx,0x4(%esp)
   466dd:	8b 45 f4             	mov    -0xc(%ebp),%eax
   466e0:	89 04 24             	mov    %eax,(%esp)
   466e3:	e8 4e f5 ff ff       	call   45c36 <sata_write>
   466e8:	b8 00 02 00 00       	mov    $0x200,%eax
   466ed:	2b 45 ec             	sub    -0x14(%ebp),%eax
   466f0:	01 45 0c             	add    %eax,0xc(%ebp)
   466f3:	8b 45 14             	mov    0x14(%ebp),%eax
   466f6:	2b 45 ec             	sub    -0x14(%ebp),%eax
   466f9:	05 00 02 00 00       	add    $0x200,%eax
   466fe:	89 45 14             	mov    %eax,0x14(%ebp)
   46701:	8b 55 ec             	mov    -0x14(%ebp),%edx
   46704:	8b 45 10             	mov    0x10(%ebp),%eax
   46707:	01 d0                	add    %edx,%eax
   46709:	2d 00 02 00 00       	sub    $0x200,%eax
   4670e:	89 45 10             	mov    %eax,0x10(%ebp)
   46711:	8b 45 10             	mov    0x10(%ebp),%eax
   46714:	25 ff 01 00 00       	and    $0x1ff,%eax
   46719:	89 45 e4             	mov    %eax,-0x1c(%ebp)
   4671c:	8b 45 10             	mov    0x10(%ebp),%eax
   4671f:	c1 e8 09             	shr    $0x9,%eax
   46722:	89 c1                	mov    %eax,%ecx
   46724:	8b 45 14             	mov    0x14(%ebp),%eax
   46727:	c1 e8 09             	shr    $0x9,%eax
   4672a:	89 c2                	mov    %eax,%edx
   4672c:	8b 45 0c             	mov    0xc(%ebp),%eax
   4672f:	89 44 24 10          	mov    %eax,0x10(%esp)
   46733:	89 4c 24 0c          	mov    %ecx,0xc(%esp)
   46737:	c7 44 24 08 00 00 00 	movl   $0x0,0x8(%esp)
   4673e:	00 
   4673f:	89 54 24 04          	mov    %edx,0x4(%esp)
   46743:	8b 45 f4             	mov    -0xc(%ebp),%eax
   46746:	89 04 24             	mov    %eax,(%esp)
   46749:	e8 e8 f4 ff ff       	call   45c36 <sata_write>
   4674e:	8b 45 10             	mov    0x10(%ebp),%eax
   46751:	01 45 14             	add    %eax,0x14(%ebp)
   46754:	8b 45 14             	mov    0x14(%ebp),%eax
   46757:	c1 e8 09             	shr    $0x9,%eax
   4675a:	89 c2                	mov    %eax,%edx
   4675c:	8b 45 e8             	mov    -0x18(%ebp),%eax
   4675f:	89 44 24 10          	mov    %eax,0x10(%esp)
   46763:	c7 44 24 0c 01 00 00 	movl   $0x1,0xc(%esp)
   4676a:	00 
   4676b:	c7 44 24 08 00 00 00 	movl   $0x0,0x8(%esp)
   46772:	00 
   46773:	89 54 24 04          	mov    %edx,0x4(%esp)
   46777:	8b 45 f4             	mov    -0xc(%ebp),%eax
   4677a:	89 04 24             	mov    %eax,(%esp)
   4677d:	e8 83 f7 ff ff       	call   45f05 <sata_read>
   46782:	8b 45 10             	mov    0x10(%ebp),%eax
   46785:	25 ff 01 00 00       	and    $0x1ff,%eax
   4678a:	89 c2                	mov    %eax,%edx
   4678c:	8b 45 10             	mov    0x10(%ebp),%eax
   4678f:	2b 45 e4             	sub    -0x1c(%ebp),%eax
   46792:	89 c1                	mov    %eax,%ecx
   46794:	8b 45 0c             	mov    0xc(%ebp),%eax
   46797:	01 c8                	add    %ecx,%eax
   46799:	89 54 24 08          	mov    %edx,0x8(%esp)
   4679d:	89 44 24 04          	mov    %eax,0x4(%esp)
   467a1:	8b 45 e8             	mov    -0x18(%ebp),%eax
   467a4:	89 04 24             	mov    %eax,(%esp)
   467a7:	e8 a5 b5 ff ff       	call   41d51 <memcpy>
   467ac:	8b 45 14             	mov    0x14(%ebp),%eax
   467af:	c1 e8 09             	shr    $0x9,%eax
   467b2:	89 c2                	mov    %eax,%edx
   467b4:	8b 45 e8             	mov    -0x18(%ebp),%eax
   467b7:	89 44 24 10          	mov    %eax,0x10(%esp)
   467bb:	c7 44 24 0c 01 00 00 	movl   $0x1,0xc(%esp)
   467c2:	00 
   467c3:	c7 44 24 08 00 00 00 	movl   $0x0,0x8(%esp)
   467ca:	00 
   467cb:	89 54 24 04          	mov    %edx,0x4(%esp)
   467cf:	8b 45 f4             	mov    -0xc(%ebp),%eax
   467d2:	89 04 24             	mov    %eax,(%esp)
   467d5:	e8 5c f4 ff ff       	call   45c36 <sata_write>
   467da:	8b 45 e8             	mov    -0x18(%ebp),%eax
   467dd:	89 04 24             	mov    %eax,(%esp)
   467e0:	e8 51 a8 ff ff       	call   41036 <khfree>
   467e5:	8b 45 f4             	mov    -0xc(%ebp),%eax
   467e8:	8b 00                	mov    (%eax),%eax
   467ea:	89 45 f4             	mov    %eax,-0xc(%ebp)
   467ed:	83 7d f4 00          	cmpl   $0x0,-0xc(%ebp)
   467f1:	0f 85 58 fe ff ff    	jne    4664f <sata_devfs_write+0x27>
   467f7:	b8 00 00 00 00       	mov    $0x0,%eax
   467fc:	89 ec                	mov    %ebp,%esp
   467fe:	5d                   	pop    %ebp
   467ff:	c3                   	ret    

00046800 <sata_ctrl_init>:
   46800:	55                   	push   %ebp
   46801:	89 e5                	mov    %esp,%ebp
   46803:	83 ec 38             	sub    $0x38,%esp
   46806:	8b 45 08             	mov    0x8(%ebp),%eax
   46809:	0f b6 40 02          	movzbl 0x2(%eax),%eax
   4680d:	0f b6 c8             	movzbl %al,%ecx
   46810:	8b 45 08             	mov    0x8(%ebp),%eax
   46813:	0f b6 40 01          	movzbl 0x1(%eax),%eax
   46817:	0f b6 d0             	movzbl %al,%edx
   4681a:	8b 45 08             	mov    0x8(%ebp),%eax
   4681d:	0f b6 00             	movzbl (%eax),%eax
   46820:	0f b6 c0             	movzbl %al,%eax
   46823:	c7 44 24 0c 24 00 00 	movl   $0x24,0xc(%esp)
   4682a:	00 
   4682b:	89 4c 24 08          	mov    %ecx,0x8(%esp)
   4682f:	89 54 24 04          	mov    %edx,0x4(%esp)
   46833:	89 04 24             	mov    %eax,(%esp)
   46836:	e8 0d ee ff ff       	call   45648 <readconfword32>
   4683b:	83 e0 f0             	and    $0xfffffff0,%eax
   4683e:	89 45 e8             	mov    %eax,-0x18(%ebp)
   46841:	a1 40 cf 04 00       	mov    0x4cf40,%eax
   46846:	05 00 08 00 00       	add    $0x800,%eax
   4684b:	c1 e0 0c             	shl    $0xc,%eax
   4684e:	89 c1                	mov    %eax,%ecx
   46850:	8b 55 e8             	mov    -0x18(%ebp),%edx
   46853:	a1 c0 c6 04 00       	mov    0x4c6c0,%eax
   46858:	89 4c 24 08          	mov    %ecx,0x8(%esp)
   4685c:	89 54 24 04          	mov    %edx,0x4(%esp)
   46860:	89 04 24             	mov    %eax,(%esp)
   46863:	e8 e5 af ff ff       	call   4184d <krnl_map_page>
   46868:	a1 40 cf 04 00       	mov    0x4cf40,%eax
   4686d:	05 01 08 00 00       	add    $0x801,%eax
   46872:	c1 e0 0c             	shl    $0xc,%eax
   46875:	89 c1                	mov    %eax,%ecx
   46877:	8b 45 e8             	mov    -0x18(%ebp),%eax
   4687a:	05 00 10 00 00       	add    $0x1000,%eax
   4687f:	89 c2                	mov    %eax,%edx
   46881:	a1 c0 c6 04 00       	mov    0x4c6c0,%eax
   46886:	89 4c 24 08          	mov    %ecx,0x8(%esp)
   4688a:	89 54 24 04          	mov    %edx,0x4(%esp)
   4688e:	89 04 24             	mov    %eax,(%esp)
   46891:	e8 b7 af ff ff       	call   4184d <krnl_map_page>
   46896:	a1 40 cf 04 00       	mov    0x4cf40,%eax
   4689b:	05 00 04 00 00       	add    $0x400,%eax
   468a0:	c1 e0 0d             	shl    $0xd,%eax
   468a3:	89 45 e4             	mov    %eax,-0x1c(%ebp)
   468a6:	a1 40 cf 04 00       	mov    0x4cf40,%eax
   468ab:	40                   	inc    %eax
   468ac:	a3 40 cf 04 00       	mov    %eax,0x4cf40
   468b1:	8b 45 e4             	mov    -0x1c(%ebp),%eax
   468b4:	8b 40 0c             	mov    0xc(%eax),%eax
   468b7:	89 45 f4             	mov    %eax,-0xc(%ebp)
   468ba:	c7 45 f0 00 00 00 00 	movl   $0x0,-0x10(%ebp)
   468c1:	c7 04 24 18 00 00 00 	movl   $0x18,(%esp)
   468c8:	e8 24 a7 ff ff       	call   40ff1 <khmalloc>
   468cd:	a3 3c cf 04 00       	mov    %eax,0x4cf3c
   468d2:	a1 3c cf 04 00       	mov    0x4cf3c,%eax
   468d7:	89 45 ec             	mov    %eax,-0x14(%ebp)
   468da:	c7 04 24 00 00 11 00 	movl   $0x110000,(%esp)
   468e1:	e8 0b a7 ff ff       	call   40ff1 <khmalloc>
   468e6:	a3 38 cf 04 00       	mov    %eax,0x4cf38
   468eb:	8b 15 38 cf 04 00    	mov    0x4cf38,%edx
   468f1:	a1 38 cf 04 00       	mov    0x4cf38,%eax
   468f6:	83 e0 7f             	and    $0x7f,%eax
   468f9:	89 c1                	mov    %eax,%ecx
   468fb:	b8 80 00 00 00       	mov    $0x80,%eax
   46900:	29 c8                	sub    %ecx,%eax
   46902:	01 d0                	add    %edx,%eax
   46904:	a3 38 cf 04 00       	mov    %eax,0x4cf38
   46909:	e9 9c 01 00 00       	jmp    46aaa <sata_ctrl_init+0x2aa>
   4690e:	8b 45 f4             	mov    -0xc(%ebp),%eax
   46911:	83 e0 01             	and    $0x1,%eax
   46914:	85 c0                	test   %eax,%eax
   46916:	0f 84 88 01 00 00    	je     46aa4 <sata_ctrl_init+0x2a4>
   4691c:	8b 45 f0             	mov    -0x10(%ebp),%eax
   4691f:	83 c0 02             	add    $0x2,%eax
   46922:	c1 e0 07             	shl    $0x7,%eax
   46925:	89 c2                	mov    %eax,%edx
   46927:	8b 45 e4             	mov    -0x1c(%ebp),%eax
   4692a:	01 d0                	add    %edx,%eax
   4692c:	89 04 24             	mov    %eax,(%esp)
   4692f:	e8 e9 fa ff ff       	call   4641d <check_type>
   46934:	89 45 e0             	mov    %eax,-0x20(%ebp)
   46937:	83 7d e0 00          	cmpl   $0x0,-0x20(%ebp)
   4693b:	0f 84 63 01 00 00    	je     46aa4 <sata_ctrl_init+0x2a4>
   46941:	c7 04 24 18 00 00 00 	movl   $0x18,(%esp)
   46948:	e8 a4 a6 ff ff       	call   40ff1 <khmalloc>
   4694d:	8b 55 ec             	mov    -0x14(%ebp),%edx
   46950:	89 02                	mov    %eax,(%edx)
   46952:	c7 44 24 04 28 66 04 	movl   $0x46628,0x4(%esp)
   46959:	00 
   4695a:	c7 04 24 9b 64 04 00 	movl   $0x4649b,(%esp)
   46961:	e8 4f 03 00 00       	call   46cb5 <devfs_int_creat>
   46966:	89 45 dc             	mov    %eax,-0x24(%ebp)
   46969:	8b 45 e4             	mov    -0x1c(%ebp),%eax
   4696c:	c7 40 04 00 00 00 80 	movl   $0x80000000,0x4(%eax)
   46973:	8b 45 e4             	mov    -0x1c(%ebp),%eax
   46976:	c7 40 04 01 00 00 00 	movl   $0x1,0x4(%eax)
   4697d:	8b 45 e4             	mov    -0x1c(%ebp),%eax
   46980:	c7 40 04 00 00 00 80 	movl   $0x80000000,0x4(%eax)
   46987:	8b 45 e4             	mov    -0x1c(%ebp),%eax
   4698a:	c7 40 04 02 00 00 00 	movl   $0x2,0x4(%eax)
   46991:	8b 45 f0             	mov    -0x10(%ebp),%eax
   46994:	83 c0 02             	add    $0x2,%eax
   46997:	c1 e0 07             	shl    $0x7,%eax
   4699a:	89 c2                	mov    %eax,%edx
   4699c:	8b 45 e4             	mov    -0x1c(%ebp),%eax
   4699f:	01 c2                	add    %eax,%edx
   469a1:	8b 45 f0             	mov    -0x10(%ebp),%eax
   469a4:	89 44 24 04          	mov    %eax,0x4(%esp)
   469a8:	89 14 24             	mov    %edx,(%esp)
   469ab:	e8 94 f8 ff ff       	call   46244 <port_rebase>
   469b0:	8b 45 dc             	mov    -0x24(%ebp),%eax
   469b3:	c6 40 24 73          	movb   $0x73,0x24(%eax)
   469b7:	8b 45 dc             	mov    -0x24(%ebp),%eax
   469ba:	c6 40 25 64          	movb   $0x64,0x25(%eax)
   469be:	8b 0d 44 cf 04 00    	mov    0x4cf44,%ecx
   469c4:	ba 67 66 66 66       	mov    $0x66666667,%edx
   469c9:	89 c8                	mov    %ecx,%eax
   469cb:	f7 ea                	imul   %edx
   469cd:	89 d0                	mov    %edx,%eax
   469cf:	c1 f8 02             	sar    $0x2,%eax
   469d2:	c1 f9 1f             	sar    $0x1f,%ecx
   469d5:	89 ca                	mov    %ecx,%edx
   469d7:	29 d0                	sub    %edx,%eax
   469d9:	04 41                	add    $0x41,%al
   469db:	88 c2                	mov    %al,%dl
   469dd:	8b 45 dc             	mov    -0x24(%ebp),%eax
   469e0:	88 50 26             	mov    %dl,0x26(%eax)
   469e3:	a1 44 cf 04 00       	mov    0x4cf44,%eax
   469e8:	8d 50 01             	lea    0x1(%eax),%edx
   469eb:	89 15 44 cf 04 00    	mov    %edx,0x4cf44
   469f1:	04 61                	add    $0x61,%al
   469f3:	88 c2                	mov    %al,%dl
   469f5:	8b 45 dc             	mov    -0x24(%ebp),%eax
   469f8:	88 50 27             	mov    %dl,0x27(%eax)
   469fb:	8b 45 dc             	mov    -0x24(%ebp),%eax
   469fe:	8b 90 38 01 00 00    	mov    0x138(%eax),%edx
   46a04:	8b 45 ec             	mov    -0x14(%ebp),%eax
   46a07:	89 50 04             	mov    %edx,0x4(%eax)
   46a0a:	8b 55 f0             	mov    -0x10(%ebp),%edx
   46a0d:	8b 45 ec             	mov    -0x14(%ebp),%eax
   46a10:	89 50 08             	mov    %edx,0x8(%eax)
   46a13:	8b 45 f0             	mov    -0x10(%ebp),%eax
   46a16:	83 c0 02             	add    $0x2,%eax
   46a19:	c1 e0 07             	shl    $0x7,%eax
   46a1c:	89 c2                	mov    %eax,%edx
   46a1e:	8b 45 e4             	mov    -0x1c(%ebp),%eax
   46a21:	01 c2                	add    %eax,%edx
   46a23:	8b 45 ec             	mov    -0x14(%ebp),%eax
   46a26:	89 50 0c             	mov    %edx,0xc(%eax)
   46a29:	8b 45 ec             	mov    -0x14(%ebp),%eax
   46a2c:	8b 55 e4             	mov    -0x1c(%ebp),%edx
   46a2f:	89 50 10             	mov    %edx,0x10(%eax)
   46a32:	c7 04 24 c1 d1 04 00 	movl   $0x4d1c1,(%esp)
   46a39:	e8 a2 c2 ff ff       	call   42ce0 <putstring>
   46a3e:	8b 45 f0             	mov    -0x10(%ebp),%eax
   46a41:	c7 44 24 04 0a 00 00 	movl   $0xa,0x4(%esp)
   46a48:	00 
   46a49:	89 04 24             	mov    %eax,(%esp)
   46a4c:	e8 f4 c4 ff ff       	call   42f45 <putunum>
   46a51:	c7 04 24 cb d1 04 00 	movl   $0x4d1cb,(%esp)
   46a58:	e8 83 c2 ff ff       	call   42ce0 <putstring>
   46a5d:	8b 45 dc             	mov    -0x24(%ebp),%eax
   46a60:	8b 80 38 01 00 00    	mov    0x138(%eax),%eax
   46a66:	c7 44 24 04 0a 00 00 	movl   $0xa,0x4(%esp)
   46a6d:	00 
   46a6e:	89 04 24             	mov    %eax,(%esp)
   46a71:	e8 cf c4 ff ff       	call   42f45 <putunum>
   46a76:	c7 04 24 d9 d1 04 00 	movl   $0x4d1d9,(%esp)
   46a7d:	e8 5e c2 ff ff       	call   42ce0 <putstring>
   46a82:	8b 45 dc             	mov    -0x24(%ebp),%eax
   46a85:	83 c0 24             	add    $0x24,%eax
   46a88:	89 04 24             	mov    %eax,(%esp)
   46a8b:	e8 50 c2 ff ff       	call   42ce0 <putstring>
   46a90:	c7 04 24 ea d1 04 00 	movl   $0x4d1ea,(%esp)
   46a97:	e8 44 c2 ff ff       	call   42ce0 <putstring>
   46a9c:	8b 45 ec             	mov    -0x14(%ebp),%eax
   46a9f:	8b 00                	mov    (%eax),%eax
   46aa1:	89 45 ec             	mov    %eax,-0x14(%ebp)
   46aa4:	d1 6d f4             	shrl   -0xc(%ebp)
   46aa7:	ff 45 f0             	incl   -0x10(%ebp)
   46aaa:	83 7d f0 1f          	cmpl   $0x1f,-0x10(%ebp)
   46aae:	0f 8e 5a fe ff ff    	jle    4690e <sata_ctrl_init+0x10e>
   46ab4:	90                   	nop
   46ab5:	90                   	nop
   46ab6:	89 ec                	mov    %ebp,%esp
   46ab8:	5d                   	pop    %ebp
   46ab9:	c3                   	ret    

00046aba <init_sata>:
   46aba:	55                   	push   %ebp
   46abb:	89 e5                	mov    %esp,%ebp
   46abd:	83 ec 28             	sub    $0x28,%esp
   46ac0:	c7 04 24 ec d1 04 00 	movl   $0x4d1ec,(%esp)
   46ac7:	e8 14 c2 ff ff       	call   42ce0 <putstring>
   46acc:	a1 30 cf 04 00       	mov    0x4cf30,%eax
   46ad1:	89 45 f4             	mov    %eax,-0xc(%ebp)
   46ad4:	e9 d9 00 00 00       	jmp    46bb2 <init_sata+0xf8>
   46ad9:	8b 45 f4             	mov    -0xc(%ebp),%eax
   46adc:	0f b6 40 03          	movzbl 0x3(%eax),%eax
   46ae0:	3c 01                	cmp    $0x1,%al
   46ae2:	0f 85 c1 00 00 00    	jne    46ba9 <init_sata+0xef>
   46ae8:	8b 45 f4             	mov    -0xc(%ebp),%eax
   46aeb:	0f b6 40 04          	movzbl 0x4(%eax),%eax
   46aef:	3c 06                	cmp    $0x6,%al
   46af1:	0f 85 b2 00 00 00    	jne    46ba9 <init_sata+0xef>
   46af7:	c7 04 24 fc d1 04 00 	movl   $0x4d1fc,(%esp)
   46afe:	e8 dd c1 ff ff       	call   42ce0 <putstring>
   46b03:	8b 45 f4             	mov    -0xc(%ebp),%eax
   46b06:	0f b6 00             	movzbl (%eax),%eax
   46b09:	0f b6 c0             	movzbl %al,%eax
   46b0c:	c7 44 24 04 0a 00 00 	movl   $0xa,0x4(%esp)
   46b13:	00 
   46b14:	89 04 24             	mov    %eax,(%esp)
   46b17:	e8 29 c4 ff ff       	call   42f45 <putunum>
   46b1c:	c7 04 24 1b d2 04 00 	movl   $0x4d21b,(%esp)
   46b23:	e8 b8 c1 ff ff       	call   42ce0 <putstring>
   46b28:	8b 45 f4             	mov    -0xc(%ebp),%eax
   46b2b:	0f b6 40 01          	movzbl 0x1(%eax),%eax
   46b2f:	0f b6 c0             	movzbl %al,%eax
   46b32:	c7 44 24 04 0a 00 00 	movl   $0xa,0x4(%esp)
   46b39:	00 
   46b3a:	89 04 24             	mov    %eax,(%esp)
   46b3d:	e8 03 c4 ff ff       	call   42f45 <putunum>
   46b42:	c7 04 24 21 d2 04 00 	movl   $0x4d221,(%esp)
   46b49:	e8 92 c1 ff ff       	call   42ce0 <putstring>
   46b4e:	8b 45 f4             	mov    -0xc(%ebp),%eax
   46b51:	0f b6 40 02          	movzbl 0x2(%eax),%eax
   46b55:	0f b6 c0             	movzbl %al,%eax
   46b58:	c7 44 24 04 0a 00 00 	movl   $0xa,0x4(%esp)
   46b5f:	00 
   46b60:	89 04 24             	mov    %eax,(%esp)
   46b63:	e8 dd c3 ff ff       	call   42f45 <putunum>
   46b68:	c7 04 24 ea d1 04 00 	movl   $0x4d1ea,(%esp)
   46b6f:	e8 6c c1 ff ff       	call   42ce0 <putstring>
   46b74:	8b 45 f4             	mov    -0xc(%ebp),%eax
   46b77:	0f b6 40 05          	movzbl 0x5(%eax),%eax
   46b7b:	0f b6 c0             	movzbl %al,%eax
   46b7e:	c7 44 24 0c 8e 00 00 	movl   $0x8e,0xc(%esp)
   46b85:	00 
   46b86:	c7 44 24 08 08 00 00 	movl   $0x8,0x8(%esp)
   46b8d:	00 
   46b8e:	c7 44 24 04 29 5c 04 	movl   $0x45c29,0x4(%esp)
   46b95:	00 
   46b96:	89 04 24             	mov    %eax,(%esp)
   46b99:	e8 7a a5 ff ff       	call   41118 <set_idt_entry>
   46b9e:	8b 45 f4             	mov    -0xc(%ebp),%eax
   46ba1:	89 04 24             	mov    %eax,(%esp)
   46ba4:	e8 57 fc ff ff       	call   46800 <sata_ctrl_init>
   46ba9:	8b 45 f4             	mov    -0xc(%ebp),%eax
   46bac:	8b 40 0c             	mov    0xc(%eax),%eax
   46baf:	89 45 f4             	mov    %eax,-0xc(%ebp)
   46bb2:	83 7d f4 00          	cmpl   $0x0,-0xc(%ebp)
   46bb6:	0f 85 1d ff ff ff    	jne    46ad9 <init_sata+0x1f>
   46bbc:	c7 04 24 4c 80 04 00 	movl   $0x4804c,(%esp)
   46bc3:	e8 18 c1 ff ff       	call   42ce0 <putstring>
   46bc8:	90                   	nop
   46bc9:	89 ec                	mov    %ebp,%esp
   46bcb:	5d                   	pop    %ebp
   46bcc:	c3                   	ret    

00046bcd <devfs_open>:
   46bcd:	55                   	push   %ebp
   46bce:	89 e5                	mov    %esp,%ebp
   46bd0:	83 ec 10             	sub    $0x10,%esp
   46bd3:	ff 45 0c             	incl   0xc(%ebp)
   46bd6:	c7 45 fc 00 00 00 00 	movl   $0x0,-0x4(%ebp)
   46bdd:	eb 16                	jmp    46bf5 <devfs_open+0x28>
   46bdf:	a1 d0 c6 04 00       	mov    0x4c6d0,%eax
   46be4:	8b 55 fc             	mov    -0x4(%ebp),%edx
   46be7:	83 c2 0c             	add    $0xc,%edx
   46bea:	8b 44 90 01          	mov    0x1(%eax,%edx,4),%eax
   46bee:	85 c0                	test   %eax,%eax
   46bf0:	74 0e                	je     46c00 <devfs_open+0x33>
   46bf2:	ff 45 fc             	incl   -0x4(%ebp)
   46bf5:	81 7d fc ff 03 00 00 	cmpl   $0x3ff,-0x4(%ebp)
   46bfc:	7e e1                	jle    46bdf <devfs_open+0x12>
   46bfe:	eb 01                	jmp    46c01 <devfs_open+0x34>
   46c00:	90                   	nop
   46c01:	a1 d0 c6 04 00       	mov    0x4c6d0,%eax
   46c06:	8b 55 fc             	mov    -0x4(%ebp),%edx
   46c09:	8d 4a 0c             	lea    0xc(%edx),%ecx
   46c0c:	8b 55 08             	mov    0x8(%ebp),%edx
   46c0f:	89 54 88 01          	mov    %edx,0x1(%eax,%ecx,4)
   46c13:	8b 45 fc             	mov    -0x4(%ebp),%eax
   46c16:	89 ec                	mov    %ebp,%esp
   46c18:	5d                   	pop    %ebp
   46c19:	c3                   	ret    

00046c1a <devfs_close>:
   46c1a:	55                   	push   %ebp
   46c1b:	89 e5                	mov    %esp,%ebp
   46c1d:	a1 d0 c6 04 00       	mov    0x4c6d0,%eax
   46c22:	8b 55 08             	mov    0x8(%ebp),%edx
   46c25:	83 c2 0c             	add    $0xc,%edx
   46c28:	c7 44 90 01 00 00 00 	movl   $0x0,0x1(%eax,%edx,4)
   46c2f:	00 
   46c30:	b8 00 00 00 00       	mov    $0x0,%eax
   46c35:	5d                   	pop    %ebp
   46c36:	c3                   	ret    

00046c37 <devfs_readdir>:
   46c37:	55                   	push   %ebp
   46c38:	89 e5                	mov    %esp,%ebp
   46c3a:	90                   	nop
   46c3b:	5d                   	pop    %ebp
   46c3c:	c3                   	ret    

00046c3d <devfs_read>:
   46c3d:	55                   	push   %ebp
   46c3e:	89 e5                	mov    %esp,%ebp
   46c40:	83 ec 18             	sub    $0x18,%esp
   46c43:	a1 d0 c6 04 00       	mov    0x4c6d0,%eax
   46c48:	8b 55 08             	mov    0x8(%ebp),%edx
   46c4b:	83 c2 0c             	add    $0xc,%edx
   46c4e:	8b 44 90 01          	mov    0x1(%eax,%edx,4),%eax
   46c52:	8b 40 18             	mov    0x18(%eax),%eax
   46c55:	8b 55 14             	mov    0x14(%ebp),%edx
   46c58:	89 54 24 0c          	mov    %edx,0xc(%esp)
   46c5c:	8b 55 10             	mov    0x10(%ebp),%edx
   46c5f:	89 54 24 08          	mov    %edx,0x8(%esp)
   46c63:	8b 55 0c             	mov    0xc(%ebp),%edx
   46c66:	89 54 24 04          	mov    %edx,0x4(%esp)
   46c6a:	8b 55 08             	mov    0x8(%ebp),%edx
   46c6d:	89 14 24             	mov    %edx,(%esp)
   46c70:	ff d0                	call   *%eax
   46c72:	89 ec                	mov    %ebp,%esp
   46c74:	5d                   	pop    %ebp
   46c75:	c3                   	ret    

00046c76 <devfs_write>:
   46c76:	55                   	push   %ebp
   46c77:	89 e5                	mov    %esp,%ebp
   46c79:	83 ec 18             	sub    $0x18,%esp
   46c7c:	a1 d0 c6 04 00       	mov    0x4c6d0,%eax
   46c81:	8b 55 08             	mov    0x8(%ebp),%edx
   46c84:	83 c2 0c             	add    $0xc,%edx
   46c87:	8b 44 90 01          	mov    0x1(%eax,%edx,4),%eax
   46c8b:	8b 40 1c             	mov    0x1c(%eax),%eax
   46c8e:	8b 55 14             	mov    0x14(%ebp),%edx
   46c91:	89 54 24 0c          	mov    %edx,0xc(%esp)
   46c95:	8b 55 10             	mov    0x10(%ebp),%edx
   46c98:	89 54 24 08          	mov    %edx,0x8(%esp)
   46c9c:	8b 55 0c             	mov    0xc(%ebp),%edx
   46c9f:	89 54 24 04          	mov    %edx,0x4(%esp)
   46ca3:	8b 55 08             	mov    0x8(%ebp),%edx
   46ca6:	89 14 24             	mov    %edx,(%esp)
   46ca9:	ff d0                	call   *%eax
   46cab:	89 ec                	mov    %ebp,%esp
   46cad:	5d                   	pop    %ebp
   46cae:	c3                   	ret    

00046caf <devfs_finddir>:
   46caf:	55                   	push   %ebp
   46cb0:	89 e5                	mov    %esp,%ebp
   46cb2:	90                   	nop
   46cb3:	5d                   	pop    %ebp
   46cb4:	c3                   	ret    

00046cb5 <devfs_int_creat>:
   46cb5:	55                   	push   %ebp
   46cb6:	89 e5                	mov    %esp,%ebp
   46cb8:	83 ec 28             	sub    $0x28,%esp
   46cbb:	a1 4c cf 04 00       	mov    0x4cf4c,%eax
   46cc0:	89 45 f4             	mov    %eax,-0xc(%ebp)
   46cc3:	8b 45 f4             	mov    -0xc(%ebp),%eax
   46cc6:	8b 80 44 01 00 00    	mov    0x144(%eax),%eax
   46ccc:	85 c0                	test   %eax,%eax
   46cce:	74 4a                	je     46d1a <devfs_int_creat+0x65>
   46cd0:	8b 45 f4             	mov    -0xc(%ebp),%eax
   46cd3:	8b 80 44 01 00 00    	mov    0x144(%eax),%eax
   46cd9:	89 45 f4             	mov    %eax,-0xc(%ebp)
   46cdc:	eb 0c                	jmp    46cea <devfs_int_creat+0x35>
   46cde:	8b 45 f4             	mov    -0xc(%ebp),%eax
   46ce1:	8b 80 40 01 00 00    	mov    0x140(%eax),%eax
   46ce7:	89 45 f4             	mov    %eax,-0xc(%ebp)
   46cea:	8b 45 f4             	mov    -0xc(%ebp),%eax
   46ced:	8b 80 40 01 00 00    	mov    0x140(%eax),%eax
   46cf3:	85 c0                	test   %eax,%eax
   46cf5:	75 e7                	jne    46cde <devfs_int_creat+0x29>
   46cf7:	c7 04 24 4c 01 00 00 	movl   $0x14c,(%esp)
   46cfe:	e8 ee a2 ff ff       	call   40ff1 <khmalloc>
   46d03:	8b 55 f4             	mov    -0xc(%ebp),%edx
   46d06:	89 82 40 01 00 00    	mov    %eax,0x140(%edx)
   46d0c:	8b 45 f4             	mov    -0xc(%ebp),%eax
   46d0f:	8b 80 40 01 00 00    	mov    0x140(%eax),%eax
   46d15:	89 45 f4             	mov    %eax,-0xc(%ebp)
   46d18:	eb 21                	jmp    46d3b <devfs_int_creat+0x86>
   46d1a:	c7 04 24 4c 01 00 00 	movl   $0x14c,(%esp)
   46d21:	e8 cb a2 ff ff       	call   40ff1 <khmalloc>
   46d26:	8b 55 f4             	mov    -0xc(%ebp),%edx
   46d29:	89 82 44 01 00 00    	mov    %eax,0x144(%edx)
   46d2f:	8b 45 f4             	mov    -0xc(%ebp),%eax
   46d32:	8b 80 44 01 00 00    	mov    0x144(%eax),%eax
   46d38:	89 45 f4             	mov    %eax,-0xc(%ebp)
   46d3b:	8b 45 f4             	mov    -0xc(%ebp),%eax
   46d3e:	c7 80 40 01 00 00 00 	movl   $0x0,0x140(%eax)
   46d45:	00 00 00 
   46d48:	8b 45 f4             	mov    -0xc(%ebp),%eax
   46d4b:	c7 00 cd 6b 04 00    	movl   $0x46bcd,(%eax)
   46d51:	8b 45 f4             	mov    -0xc(%ebp),%eax
   46d54:	c7 40 04 1a 6c 04 00 	movl   $0x46c1a,0x4(%eax)
   46d5b:	8b 45 f4             	mov    -0xc(%ebp),%eax
   46d5e:	c7 40 08 3d 6c 04 00 	movl   $0x46c3d,0x8(%eax)
   46d65:	8b 45 f4             	mov    -0xc(%ebp),%eax
   46d68:	c7 40 0c 76 6c 04 00 	movl   $0x46c76,0xc(%eax)
   46d6f:	8b 45 f4             	mov    -0xc(%ebp),%eax
   46d72:	c7 40 10 37 6c 04 00 	movl   $0x46c37,0x10(%eax)
   46d79:	8b 45 f4             	mov    -0xc(%ebp),%eax
   46d7c:	c7 40 14 af 6c 04 00 	movl   $0x46caf,0x14(%eax)
   46d83:	8b 45 f4             	mov    -0xc(%ebp),%eax
   46d86:	8b 55 08             	mov    0x8(%ebp),%edx
   46d89:	89 50 18             	mov    %edx,0x18(%eax)
   46d8c:	8b 45 f4             	mov    -0xc(%ebp),%eax
   46d8f:	8b 55 0c             	mov    0xc(%ebp),%edx
   46d92:	89 50 1c             	mov    %edx,0x1c(%eax)
   46d95:	8b 45 f4             	mov    -0xc(%ebp),%eax
   46d98:	66 c7 80 24 01 00 00 	movw   $0x1a4,0x124(%eax)
   46d9f:	a4 01 
   46da1:	8b 45 f4             	mov    -0xc(%ebp),%eax
   46da4:	c7 80 28 01 00 00 00 	movl   $0x0,0x128(%eax)
   46dab:	00 00 00 
   46dae:	8b 45 f4             	mov    -0xc(%ebp),%eax
   46db1:	c7 80 2c 01 00 00 00 	movl   $0x0,0x12c(%eax)
   46db8:	00 00 00 
   46dbb:	8b 45 f4             	mov    -0xc(%ebp),%eax
   46dbe:	c7 80 30 01 00 00 00 	movl   $0x0,0x130(%eax)
   46dc5:	00 00 00 
   46dc8:	c7 80 34 01 00 00 00 	movl   $0x0,0x134(%eax)
   46dcf:	00 00 00 
   46dd2:	a1 48 cf 04 00       	mov    0x4cf48,%eax
   46dd7:	8d 50 01             	lea    0x1(%eax),%edx
   46dda:	89 15 48 cf 04 00    	mov    %edx,0x4cf48
   46de0:	8b 55 f4             	mov    -0xc(%ebp),%edx
   46de3:	89 82 38 01 00 00    	mov    %eax,0x138(%edx)
   46de9:	8b 45 f4             	mov    -0xc(%ebp),%eax
   46dec:	c6 80 48 01 00 00 03 	movb   $0x3,0x148(%eax)
   46df3:	8b 45 f4             	mov    -0xc(%ebp),%eax
   46df6:	89 ec                	mov    %ebp,%esp
   46df8:	5d                   	pop    %ebp
   46df9:	c3                   	ret    

00046dfa <devfs_init>:
   46dfa:	55                   	push   %ebp
   46dfb:	89 e5                	mov    %esp,%ebp
   46dfd:	83 ec 18             	sub    $0x18,%esp
   46e00:	c7 04 24 4c 01 00 00 	movl   $0x14c,(%esp)
   46e07:	e8 e5 a1 ff ff       	call   40ff1 <khmalloc>
   46e0c:	a3 4c cf 04 00       	mov    %eax,0x4cf4c
   46e11:	a1 4c cf 04 00       	mov    0x4cf4c,%eax
   46e16:	66 c7 80 24 01 00 00 	movw   $0x1ed,0x124(%eax)
   46e1d:	ed 01 
   46e1f:	a1 4c cf 04 00       	mov    0x4cf4c,%eax
   46e24:	c7 00 cd 6b 04 00    	movl   $0x46bcd,(%eax)
   46e2a:	a1 4c cf 04 00       	mov    0x4cf4c,%eax
   46e2f:	c7 40 04 1a 6c 04 00 	movl   $0x46c1a,0x4(%eax)
   46e36:	a1 4c cf 04 00       	mov    0x4cf4c,%eax
   46e3b:	c7 40 08 3d 6c 04 00 	movl   $0x46c3d,0x8(%eax)
   46e42:	a1 4c cf 04 00       	mov    0x4cf4c,%eax
   46e47:	c7 40 0c 76 6c 04 00 	movl   $0x46c76,0xc(%eax)
   46e4e:	a1 4c cf 04 00       	mov    0x4cf4c,%eax
   46e53:	c7 40 10 37 6c 04 00 	movl   $0x46c37,0x10(%eax)
   46e5a:	a1 4c cf 04 00       	mov    0x4cf4c,%eax
   46e5f:	c6 40 24 64          	movb   $0x64,0x24(%eax)
   46e63:	a1 4c cf 04 00       	mov    0x4cf4c,%eax
   46e68:	c6 40 25 65          	movb   $0x65,0x25(%eax)
   46e6c:	a1 4c cf 04 00       	mov    0x4cf4c,%eax
   46e71:	c6 40 26 76          	movb   $0x76,0x26(%eax)
   46e75:	a1 4c cf 04 00       	mov    0x4cf4c,%eax
   46e7a:	c6 40 27 00          	movb   $0x0,0x27(%eax)
   46e7e:	a1 4c cf 04 00       	mov    0x4cf4c,%eax
   46e83:	c6 80 48 01 00 00 02 	movb   $0x2,0x148(%eax)
   46e8a:	a1 4c cf 04 00       	mov    0x4cf4c,%eax
   46e8f:	c7 80 44 01 00 00 00 	movl   $0x0,0x144(%eax)
   46e96:	00 00 00 
   46e99:	a1 58 cf 04 00       	mov    0x4cf58,%eax
   46e9e:	8b 15 4c cf 04 00    	mov    0x4cf4c,%edx
   46ea4:	89 90 44 01 00 00    	mov    %edx,0x144(%eax)
   46eaa:	90                   	nop
   46eab:	89 ec                	mov    %ebp,%esp
   46ead:	5d                   	pop    %ebp
   46eae:	c3                   	ret    

00046eaf <init_fat>:
   46eaf:	55                   	push   %ebp
   46eb0:	89 e5                	mov    %esp,%ebp
   46eb2:	90                   	nop
   46eb3:	5d                   	pop    %ebp
   46eb4:	c3                   	ret    

00046eb5 <mbr_read>:
   46eb5:	55                   	push   %ebp
   46eb6:	89 e5                	mov    %esp,%ebp
   46eb8:	90                   	nop
   46eb9:	5d                   	pop    %ebp
   46eba:	c3                   	ret    

00046ebb <mbr_write>:
   46ebb:	55                   	push   %ebp
   46ebc:	89 e5                	mov    %esp,%ebp
   46ebe:	90                   	nop
   46ebf:	5d                   	pop    %ebp
   46ec0:	c3                   	ret    

00046ec1 <init_mbr>:
   46ec1:	55                   	push   %ebp
   46ec2:	89 e5                	mov    %esp,%ebp
   46ec4:	83 ec 38             	sub    $0x38,%esp
   46ec7:	c7 04 24 28 d2 04 00 	movl   $0x4d228,(%esp)
   46ece:	e8 0d be ff ff       	call   42ce0 <putstring>
   46ed3:	a1 58 cf 04 00       	mov    0x4cf58,%eax
   46ed8:	c7 44 24 04 34 d2 04 	movl   $0x4d234,0x4(%esp)
   46edf:	00 
   46ee0:	89 04 24             	mov    %eax,(%esp)
   46ee3:	e8 32 03 00 00       	call   4721a <finddir>
   46ee8:	89 45 f4             	mov    %eax,-0xc(%ebp)
   46eeb:	8b 45 f4             	mov    -0xc(%ebp),%eax
   46eee:	8b 80 44 01 00 00    	mov    0x144(%eax),%eax
   46ef4:	89 45 f4             	mov    %eax,-0xc(%ebp)
   46ef7:	c7 04 24 00 02 00 00 	movl   $0x200,(%esp)
   46efe:	e8 ee a0 ff ff       	call   40ff1 <khmalloc>
   46f03:	a3 50 cf 04 00       	mov    %eax,0x4cf50
   46f08:	c7 04 24 10 00 00 00 	movl   $0x10,(%esp)
   46f0f:	e8 dd a0 ff ff       	call   40ff1 <khmalloc>
   46f14:	a3 54 cf 04 00       	mov    %eax,0x4cf54
   46f19:	a1 54 cf 04 00       	mov    0x4cf54,%eax
   46f1e:	89 45 f0             	mov    %eax,-0x10(%ebp)
   46f21:	e9 6a 01 00 00       	jmp    47090 <init_mbr+0x1cf>
   46f26:	c7 45 ec 00 00 00 00 	movl   $0x0,-0x14(%ebp)
   46f2d:	c7 44 24 04 00 00 00 	movl   $0x0,0x4(%esp)
   46f34:	00 
   46f35:	8b 45 f4             	mov    -0xc(%ebp),%eax
   46f38:	89 04 24             	mov    %eax,(%esp)
   46f3b:	e8 5a 02 00 00       	call   4719a <open>
   46f40:	89 45 e4             	mov    %eax,-0x1c(%ebp)
   46f43:	8b 45 e4             	mov    -0x1c(%ebp),%eax
   46f46:	89 04 24             	mov    %eax,(%esp)
   46f49:	e8 38 02 00 00       	call   47186 <fd_node_find>
   46f4e:	89 45 e0             	mov    %eax,-0x20(%ebp)
   46f51:	8b 45 e0             	mov    -0x20(%ebp),%eax
   46f54:	8b 40 08             	mov    0x8(%eax),%eax
   46f57:	8b 15 50 cf 04 00    	mov    0x4cf50,%edx
   46f5d:	c7 44 24 0c 00 00 00 	movl   $0x0,0xc(%esp)
   46f64:	00 
   46f65:	c7 44 24 08 00 02 00 	movl   $0x200,0x8(%esp)
   46f6c:	00 
   46f6d:	89 54 24 04          	mov    %edx,0x4(%esp)
   46f71:	8b 55 e4             	mov    -0x1c(%ebp),%edx
   46f74:	89 14 24             	mov    %edx,(%esp)
   46f77:	ff d0                	call   *%eax
   46f79:	a1 50 cf 04 00       	mov    0x4cf50,%eax
   46f7e:	0f b7 80 fe 01 00 00 	movzwl 0x1fe(%eax),%eax
   46f85:	3d 55 aa 00 00       	cmp    $0xaa55,%eax
   46f8a:	0f 85 e9 00 00 00    	jne    47079 <init_mbr+0x1b8>
   46f90:	8b 45 e0             	mov    -0x20(%ebp),%eax
   46f93:	0f b6 40 28          	movzbl 0x28(%eax),%eax
   46f97:	84 c0                	test   %al,%al
   46f99:	0f 85 da 00 00 00    	jne    47079 <init_mbr+0x1b8>
   46f9f:	c7 45 e8 00 00 00 00 	movl   $0x0,-0x18(%ebp)
   46fa6:	e9 c4 00 00 00       	jmp    4706f <init_mbr+0x1ae>
   46fab:	8b 15 50 cf 04 00    	mov    0x4cf50,%edx
   46fb1:	8b 45 e8             	mov    -0x18(%ebp),%eax
   46fb4:	83 c0 1b             	add    $0x1b,%eax
   46fb7:	c1 e0 04             	shl    $0x4,%eax
   46fba:	01 d0                	add    %edx,%eax
   46fbc:	83 c0 12             	add    $0x12,%eax
   46fbf:	0f b6 00             	movzbl (%eax),%eax
   46fc2:	84 c0                	test   %al,%al
   46fc4:	0f 84 a2 00 00 00    	je     4706c <init_mbr+0x1ab>
   46fca:	ff 45 ec             	incl   -0x14(%ebp)
   46fcd:	c7 44 24 04 bb 6e 04 	movl   $0x46ebb,0x4(%esp)
   46fd4:	00 
   46fd5:	c7 04 24 b5 6e 04 00 	movl   $0x46eb5,(%esp)
   46fdc:	e8 d4 fc ff ff       	call   46cb5 <devfs_int_creat>
   46fe1:	89 45 dc             	mov    %eax,-0x24(%ebp)
   46fe4:	8b 45 f4             	mov    -0xc(%ebp),%eax
   46fe7:	8d 50 24             	lea    0x24(%eax),%edx
   46fea:	8b 45 dc             	mov    -0x24(%ebp),%eax
   46fed:	83 c0 24             	add    $0x24,%eax
   46ff0:	c7 44 24 08 ff 00 00 	movl   $0xff,0x8(%esp)
   46ff7:	00 
   46ff8:	89 54 24 04          	mov    %edx,0x4(%esp)
   46ffc:	89 04 24             	mov    %eax,(%esp)
   46fff:	e8 4d ad ff ff       	call   41d51 <memcpy>
   47004:	8b 45 ec             	mov    -0x14(%ebp),%eax
   47007:	04 30                	add    $0x30,%al
   47009:	88 c2                	mov    %al,%dl
   4700b:	8b 45 dc             	mov    -0x24(%ebp),%eax
   4700e:	88 50 28             	mov    %dl,0x28(%eax)
   47011:	c7 04 24 38 d2 04 00 	movl   $0x4d238,(%esp)
   47018:	e8 c3 bc ff ff       	call   42ce0 <putstring>
   4701d:	8b 45 dc             	mov    -0x24(%ebp),%eax
   47020:	83 c0 24             	add    $0x24,%eax
   47023:	89 04 24             	mov    %eax,(%esp)
   47026:	e8 b5 bc ff ff       	call   42ce0 <putstring>
   4702b:	c7 04 24 47 d2 04 00 	movl   $0x4d247,(%esp)
   47032:	e8 a9 bc ff ff       	call   42ce0 <putstring>
   47037:	8b 15 50 cf 04 00    	mov    0x4cf50,%edx
   4703d:	8b 45 e8             	mov    -0x18(%ebp),%eax
   47040:	83 c0 1b             	add    $0x1b,%eax
   47043:	c1 e0 04             	shl    $0x4,%eax
   47046:	01 d0                	add    %edx,%eax
   47048:	8b 50 16             	mov    0x16(%eax),%edx
   4704b:	8b 45 f0             	mov    -0x10(%ebp),%eax
   4704e:	89 50 0c             	mov    %edx,0xc(%eax)
   47051:	c7 04 24 10 00 00 00 	movl   $0x10,(%esp)
   47058:	e8 94 9f ff ff       	call   40ff1 <khmalloc>
   4705d:	8b 55 f0             	mov    -0x10(%ebp),%edx
   47060:	89 42 08             	mov    %eax,0x8(%edx)
   47063:	8b 45 f0             	mov    -0x10(%ebp),%eax
   47066:	8b 40 08             	mov    0x8(%eax),%eax
   47069:	89 45 f0             	mov    %eax,-0x10(%ebp)
   4706c:	ff 45 e8             	incl   -0x18(%ebp)
   4706f:	83 7d e8 03          	cmpl   $0x3,-0x18(%ebp)
   47073:	0f 86 32 ff ff ff    	jbe    46fab <init_mbr+0xea>
   47079:	8b 45 e4             	mov    -0x1c(%ebp),%eax
   4707c:	89 04 24             	mov    %eax,(%esp)
   4707f:	e8 3a 01 00 00       	call   471be <close>
   47084:	8b 45 f4             	mov    -0xc(%ebp),%eax
   47087:	8b 80 40 01 00 00    	mov    0x140(%eax),%eax
   4708d:	89 45 f4             	mov    %eax,-0xc(%ebp)
   47090:	83 7d f4 00          	cmpl   $0x0,-0xc(%ebp)
   47094:	0f 85 8c fe ff ff    	jne    46f26 <init_mbr+0x65>
   4709a:	a1 50 cf 04 00       	mov    0x4cf50,%eax
   4709f:	89 04 24             	mov    %eax,(%esp)
   470a2:	e8 8f 9f ff ff       	call   41036 <khfree>
   470a7:	c7 04 24 4c 80 04 00 	movl   $0x4804c,(%esp)
   470ae:	e8 2d bc ff ff       	call   42ce0 <putstring>
   470b3:	90                   	nop
   470b4:	89 ec                	mov    %ebp,%esp
   470b6:	5d                   	pop    %ebp
   470b7:	c3                   	ret    

000470b8 <init_vfs>:
   470b8:	55                   	push   %ebp
   470b9:	89 e5                	mov    %esp,%ebp
   470bb:	83 ec 18             	sub    $0x18,%esp
   470be:	c7 04 24 49 d2 04 00 	movl   $0x4d249,(%esp)
   470c5:	e8 16 bc ff ff       	call   42ce0 <putstring>
   470ca:	c7 04 24 4c 01 00 00 	movl   $0x14c,(%esp)
   470d1:	e8 1b 9f ff ff       	call   40ff1 <khmalloc>
   470d6:	a3 58 cf 04 00       	mov    %eax,0x4cf58
   470db:	a1 58 cf 04 00       	mov    0x4cf58,%eax
   470e0:	66 c7 80 24 01 00 00 	movw   $0x1ed,0x124(%eax)
   470e7:	ed 01 
   470e9:	a1 58 cf 04 00       	mov    0x4cf58,%eax
   470ee:	c6 80 48 01 00 00 02 	movb   $0x2,0x148(%eax)
   470f5:	a1 58 cf 04 00       	mov    0x4cf58,%eax
   470fa:	c7 00 9a 71 04 00    	movl   $0x4719a,(%eax)
   47100:	a1 58 cf 04 00       	mov    0x4cf58,%eax
   47105:	c7 40 04 be 71 04 00 	movl   $0x471be,0x4(%eax)
   4710c:	a1 58 cf 04 00       	mov    0x4cf58,%eax
   47111:	c7 40 08 e9 71 04 00 	movl   $0x471e9,0x8(%eax)
   47118:	a1 58 cf 04 00       	mov    0x4cf58,%eax
   4711d:	c7 40 0c 06 72 04 00 	movl   $0x47206,0xc(%eax)
   47124:	a1 58 cf 04 00       	mov    0x4cf58,%eax
   47129:	c7 40 10 10 72 04 00 	movl   $0x47210,0x10(%eax)
   47130:	a1 58 cf 04 00       	mov    0x4cf58,%eax
   47135:	c7 40 14 1a 72 04 00 	movl   $0x4721a,0x14(%eax)
   4713c:	a1 58 cf 04 00       	mov    0x4cf58,%eax
   47141:	c7 40 20 00 00 00 00 	movl   $0x0,0x20(%eax)
   47148:	a1 58 cf 04 00       	mov    0x4cf58,%eax
   4714d:	83 c0 24             	add    $0x24,%eax
   47150:	c7 44 24 04 55 d2 04 	movl   $0x4d255,0x4(%esp)
   47157:	00 
   47158:	89 04 24             	mov    %eax,(%esp)
   4715b:	e8 56 b5 ff ff       	call   426b6 <strcpy>
   47160:	a1 58 cf 04 00       	mov    0x4cf58,%eax
   47165:	c7 80 40 01 00 00 00 	movl   $0x0,0x140(%eax)
   4716c:	00 00 00 
   4716f:	e8 86 fc ff ff       	call   46dfa <devfs_init>
   47174:	a1 50 80 04 00       	mov    0x48050,%eax
   47179:	89 04 24             	mov    %eax,(%esp)
   4717c:	e8 5f bb ff ff       	call   42ce0 <putstring>
   47181:	90                   	nop
   47182:	89 ec                	mov    %ebp,%esp
   47184:	5d                   	pop    %ebp
   47185:	c3                   	ret    

00047186 <fd_node_find>:
   47186:	55                   	push   %ebp
   47187:	89 e5                	mov    %esp,%ebp
   47189:	a1 d0 c6 04 00       	mov    0x4c6d0,%eax
   4718e:	8b 55 08             	mov    0x8(%ebp),%edx
   47191:	83 c2 0c             	add    $0xc,%edx
   47194:	8b 44 90 01          	mov    0x1(%eax,%edx,4),%eax
   47198:	5d                   	pop    %ebp
   47199:	c3                   	ret    

0004719a <open>:
   4719a:	55                   	push   %ebp
   4719b:	89 e5                	mov    %esp,%ebp
   4719d:	83 ec 18             	sub    $0x18,%esp
   471a0:	8b 45 08             	mov    0x8(%ebp),%eax
   471a3:	8b 00                	mov    (%eax),%eax
   471a5:	c7 44 24 04 00 00 00 	movl   $0x0,0x4(%esp)
   471ac:	00 
   471ad:	8b 55 08             	mov    0x8(%ebp),%edx
   471b0:	89 14 24             	mov    %edx,(%esp)
   471b3:	ff d0                	call   *%eax
   471b5:	b8 00 00 00 00       	mov    $0x0,%eax
   471ba:	89 ec                	mov    %ebp,%esp
   471bc:	5d                   	pop    %ebp
   471bd:	c3                   	ret    

000471be <close>:
   471be:	55                   	push   %ebp
   471bf:	89 e5                	mov    %esp,%ebp
   471c1:	83 ec 28             	sub    $0x28,%esp
   471c4:	8b 45 08             	mov    0x8(%ebp),%eax
   471c7:	89 04 24             	mov    %eax,(%esp)
   471ca:	e8 b7 ff ff ff       	call   47186 <fd_node_find>
   471cf:	89 45 f4             	mov    %eax,-0xc(%ebp)
   471d2:	8b 45 f4             	mov    -0xc(%ebp),%eax
   471d5:	8b 40 04             	mov    0x4(%eax),%eax
   471d8:	8b 55 08             	mov    0x8(%ebp),%edx
   471db:	89 14 24             	mov    %edx,(%esp)
   471de:	ff d0                	call   *%eax
   471e0:	b8 00 00 00 00       	mov    $0x0,%eax
   471e5:	89 ec                	mov    %ebp,%esp
   471e7:	5d                   	pop    %ebp
   471e8:	c3                   	ret    

000471e9 <read>:
   471e9:	55                   	push   %ebp
   471ea:	89 e5                	mov    %esp,%ebp
   471ec:	83 ec 14             	sub    $0x14,%esp
   471ef:	8b 45 08             	mov    0x8(%ebp),%eax
   471f2:	89 04 24             	mov    %eax,(%esp)
   471f5:	e8 8c ff ff ff       	call   47186 <fd_node_find>
   471fa:	89 45 fc             	mov    %eax,-0x4(%ebp)
   471fd:	b8 00 00 00 00       	mov    $0x0,%eax
   47202:	89 ec                	mov    %ebp,%esp
   47204:	5d                   	pop    %ebp
   47205:	c3                   	ret    

00047206 <write>:
   47206:	55                   	push   %ebp
   47207:	89 e5                	mov    %esp,%ebp
   47209:	b8 00 00 00 00       	mov    $0x0,%eax
   4720e:	5d                   	pop    %ebp
   4720f:	c3                   	ret    

00047210 <readdir>:
   47210:	55                   	push   %ebp
   47211:	89 e5                	mov    %esp,%ebp
   47213:	b8 00 00 00 00       	mov    $0x0,%eax
   47218:	5d                   	pop    %ebp
   47219:	c3                   	ret    

0004721a <finddir>:
   4721a:	55                   	push   %ebp
   4721b:	89 e5                	mov    %esp,%ebp
   4721d:	83 ec 28             	sub    $0x28,%esp
   47220:	8b 45 08             	mov    0x8(%ebp),%eax
   47223:	8b 80 44 01 00 00    	mov    0x144(%eax),%eax
   47229:	89 45 f4             	mov    %eax,-0xc(%ebp)
   4722c:	eb 2a                	jmp    47258 <finddir+0x3e>
   4722e:	8b 45 f4             	mov    -0xc(%ebp),%eax
   47231:	8d 50 24             	lea    0x24(%eax),%edx
   47234:	8b 45 0c             	mov    0xc(%ebp),%eax
   47237:	89 44 24 04          	mov    %eax,0x4(%esp)
   4723b:	89 14 24             	mov    %edx,(%esp)
   4723e:	e8 29 b5 ff ff       	call   4276c <strcmp>
   47243:	85 c0                	test   %eax,%eax
   47245:	75 05                	jne    4724c <finddir+0x32>
   47247:	8b 45 f4             	mov    -0xc(%ebp),%eax
   4724a:	eb 17                	jmp    47263 <finddir+0x49>
   4724c:	8b 45 f4             	mov    -0xc(%ebp),%eax
   4724f:	8b 80 40 01 00 00    	mov    0x140(%eax),%eax
   47255:	89 45 f4             	mov    %eax,-0xc(%ebp)
   47258:	83 7d f4 00          	cmpl   $0x0,-0xc(%ebp)
   4725c:	75 d0                	jne    4722e <finddir+0x14>
   4725e:	b8 00 00 00 00       	mov    $0x0,%eax
   47263:	89 ec                	mov    %ebp,%esp
   47265:	5d                   	pop    %ebp
   47266:	c3                   	ret    
